(lp1
(i__main__
EF
p2
(dp3
S'adpu'
p4
NsS'fci'
p5
S'621e8202412183026f05a506c00100ca01808a01058b036f0602800200058800'
p6
sS'data'
p7
S'ffffffffff'
p8
sS'name'
p9
S'6F05'
p10
sS'tp'
p11
S'transparent'
p12
sba(i__main__
EF
p13
(dp14
g4
Nsg5
S'62228202412183026f07a50ac00100cd02ff01ca01848a01058b036f0603800200098800'
p15
sg7
S'089910070000200493'
p16
sg9
S'6F07'
p17
sg11
g12
sba(i__main__
EF
p18
(dp19
g4
Nsg5
S'62228202412183026f20a50ac00100cd02ff01ca01848a01058b036f0604800200098800'
p20
sg7
S'ffffffffffffffff07'
p21
sg9
S'6F20'
p22
sg11
g12
sba(i__main__
EF
p23
(dp24
g4
Nsg5
S'621e8202412183026f30a506c00100ca01808a01058b036f06048002003c8800'
p25
sg7
S'ffffffffffffffffffffffffffffffffffffffffffffffffffffffffffffffffffffffffffffffffffffffffffffffffffffffffffffffffffffffff'
p26
sg9
S'6F30'
p27
sg11
g12
sba(i__main__
EF
p28
(dp29
g4
Nsg5
S'62228202412183026f31a50ac00100cd02ff01ca01848a01058b036f0607800200018800'
p30
sg7
S'05'
p31
sg9
S'6F31'
p32
sg11
g12
sba(i__main__
EF
p33
(dp34
g4
Nsg5
S'62228202412183026f37a50ac00100cd02ff01ca01848a01058b036f0604800200038800'
p35
sg7
S'000000'
p36
sg9
S'6F37'
p37
sg11
g12
sba(i__main__
EF
p38
(dp39
g4
Nsg5
S'621e8202412183026f38a506c00100ca01808a01058b036f06078002000f8800'
p40
sg7
S'ff3fffff3f003f1ff00c00c0f00000'
p41
sg9
S'6F38'
p42
sg11
g12
sba(i__main__
EF
p43
(dp44
g4
Nsg5
S'62258205462100031483026f39a50ac00100cd02ff01ca01848a01058b036f06058002003c8800'
p45
sg7
(lp46
S'000000'
p47
aS'000000'
p48
aS'000000'
p49
aS'000000'
p50
aS'000000'
p51
aS'000000'
p52
aS'000000'
p53
aS'000000'
p54
aS'000000'
p55
aS'000000'
p56
aS'000000'
p57
aS'000000'
p58
aS'000000'
p59
aS'000000'
p60
aS'000000'
p61
aS'000000'
p62
aS'000000'
p63
aS'000000'
p64
aS'000000'
p65
aS'000000'
p66
asg9
S'6F39'
p67
sg11
S'cyclic'
p68
sba(i__main__
EF
p69
(dp70
g4
Nsg5
S'62228202412183026f3ea50ac00100cd02ff01ca01848a01058b036f06078002000a8800'
p71
sg7
S'ffffffffffffffffffff'
p72
sg9
S'6F3E'
p73
sg11
g12
sba(i__main__
EF
p74
(dp75
g4
Nsg5
S'62228202412183026f3fa50ac00100cd02ff01ca01848a01058b036f06078002000a8800'
p76
sg7
S'ffffffffffffffffffff'
p77
sg9
S'6F3F'
p78
sg11
g12
sba(i__main__
EF
p79
(dp80
g4
Nsg5
S'62228202412183026f41a50ac00100cd02ff01ca01848a01058b036f0604800200058800'
p81
sg7
S'ffffff0000'
p82
sg9
S'6F41'
p83
sg11
g12
sba(i__main__
EF
p84
(dp85
g4
Nsg5
S'62228202412183026f45a50ac00100cd02ff01ca01848a01058b036f06048002000a8800'
p86
sg7
S'11041112111fffffffff'
p87
sg9
S'6F45'
p88
sg11
g12
sba(i__main__
EF
p89
(dp90
g4
Nsg5
S'62228202412183026f46a50ac00100cd02ff01ca01848a01058b036f0606800200118800'
p91
sg7
S'00ffffffffffffffffffffffffffffffff'
p92
sg9
S'6F46'
p93
sg11
g12
sba(i__main__
EF
p94
(dp95
g4
Nsg5
S'621e8202412183026f48a506c00100ca01808a01058b036f06078002000a8800'
p96
sg7
S'ffffffffffffffffffff'
p97
sg9
S'6F48'
p98
sg11
g12
sba(i__main__
EF
p99
(dp100
g4
Nsg5
S'621e8202412183026f74a506c00100ca01808a01058b036f0604800200108800'
p101
sg7
S'ffffffffffffffffffffffffffffffff'
p102
sg9
S'6F74'
p103
sg11
g12
sba(i__main__
EF
p104
(dp105
g4
Nsg5
S'62228202412183026f78a50ac00100cd02ff01ca01848a01058b036f0607800200028800'
p106
sg7
S'0200'
p107
sg9
S'6F78'
p108
sg11
g12
sba(i__main__
EF
p109
(dp110
g4
Nsg5
S'62228202412183026f7ba50ac00100cd02ff01ca01848a01058b036f06048002000c8800'
p111
sg7
S'62f21062f22062f23062f270'
p112
sg9
S'6F7B'
p113
sg11
g12
sba(i__main__
EF
p114
(dp115
g4
Nsg5
S'62228202412183026f7ea50ac00100cd02ff01ca01848a01058b036f06098002000b8800'
p116
sg7
S'fffffffffffffffffe0000'
p117
sg9
S'6F7E'
p118
sg11
g12
sba(i__main__
EF
p119
(dp120
g4
Nsg5
S'62228202412183026fada50ac00100cd02ff01ca01848a01058b036f0606800200048800'
p121
sg7
S'00000002'
p122
sg9
S'6FAD'
p123
sg11
g12
sba(i__main__
EF
p124
(dp125
g4
Nsg5
S'621e8202412183026faea506c00100ca01808a01058b036f0606800200018800'
p126
sg7
S'03'
p127
sg9
S'6FAE'
p128
sg11
g12
sba(i__main__
EF
p129
(dp130
g4
Nsg5
S'62228202412183026fb1a50ac00100cd02ff01ca01848a01058b036f0601800200508800'
p131
sg7
S'ffffffffffffffffffffffffffffffffffffffffffffffffffffffffffffffffffffffffffffffffffffffffffffffffffffffffffffffffffffffffffffffffffffffffffffffffffffffffffffffff'
p132
sg9
S'6FB1'
p133
sg11
g12
sba(i__main__
EF
p134
(dp135
g4
Nsg5
S'62228202412183026fb2a50ac00100cd02ff01ca01848a01058b036f0601800200078800'
p136
sg7
S'ffffffffffffff'
p137
sg9
S'6FB2'
p138
sg11
g12
sba(i__main__
EF
p139
(dp140
g4
Nsg5
S'62228202412183026fb3a50ac00100cd02ff01ca01848a01058b036f0601800200508800'
p141
sg7
S'ffffffffffffffffffffffffffffffffffffffffffffffffffffffffffffffffffffffffffffffffffffffffffffffffffffffffffffffffffffffffffffffffffffffffffffffffffffffffffffffff'
p142
sg9
S'6FB3'
p143
sg11
g12
sba(i__main__
EF
p144
(dp145
g4
Nsg5
S'62228202412183026fb4a50ac00100cd02ff01ca01848a01058b036f0601800200078800'
p146
sg7
S'ffffffffffffff'
p147
sg9
S'6FB4'
p148
sg11
g12
sba(i__main__
EF
p149
(dp150
g4
Nsg5
S'621e8202412183026fb7a506c00100ca01808a01058b036f06068002000f8800'
p151
sg7
S'ffffffffffffffffffffffffffffff'
p152
sg9
S'6FB7'
p153
sg11
g12
sba(i__main__
EF
p154
(dp155
g4
Nsg5
S'621e8202412183026f50a506c00100ca01808a01058b036f0604800200148800'
p156
sg7
S'ffffffffffffffffffffffffffffffffffffffff'
p157
sg9
S'6F50'
p158
sg11
g12
sba(i__main__
EF
p159
(dp160
g4
Nsg5
S'62228202412183026f52a50ac00100cd02ff01ca01848a01058b036f0604800200098800'
p161
sg7
S'ffffffffffffffff07'
p162
sg9
S'6F52'
p163
sg11
g12
sba(i__main__
EF
p164
(dp165
g4
Nsg5
S'62228202412183026f53a50ac00100cd02ff01ca01848a01058b036f06048002000e8800'
p166
sg7
S'ffffffffffffffffff00fffeff01'
p167
sg9
S'6F53'
p168
sg11
g12
sba(i__main__
EF
p169
(dp170
g4
Nsg5
S'62228202412183026f60a50ac00100cd02ff01ca01848a01058b036f06048002003c8800'
p171
sg7
S'ffffffffffffffffffffffffffffffffffffffffffffffffffffffffffffffffffffffffffffffffffffffffffffffffffffffffffffffffffffffff'
p172
sg9
S'6F60'
p173
sg11
g12
sba(i__main__
EF
p174
(dp175
g4
Nsg5
S'62228202412183026f61a50ac00100cd02ff01ca01848a01058b036f06078002003c8800'
p176
sg7
S'ffffffffffffffffffffffffffffffffffffffffffffffffffffffffffffffffffffffffffffffffffffffffffffffffffffffffffffffffffffffff'
p177
sg9
S'6F61'
p178
sg11
g12
sba(i__main__
EF
p179
(dp180
g4
Nsg5
S'621e8202412183026f62a506c00100ca01808a01058b036f06078002003c8800'
p181
sg7
S'ffffffffffffffffffffffffffffffffffffffffffffffffffffffffffffffffffffffffffffffffffffffffffffffffffffffffffffffffffffffff'
p182
sg9
S'6F62'
p183
sg11
g12
sba.