(lp1
(i__main__
EF
p2
(dp3
S'adpu'
p4
NsS'fci'
p5
S'62228205422100260283022f00a506c00100ca01808a01058b032f06048002004c8801f0'
p6
sS'data'
p7
(lp8
S'61194f10a0000000871002ffffffff890709000050055553696d31ffffffffffffffffffffff'
p9
aS'ffffffffffffffffffffffffffffffffffffffffffffffffffffffffffffffffffffffffffff'
p10
asS'name'
p11
S'2F00'
p12
sS'tp'
p13
S'linear'
p14
sba(i__main__
EF
p15
(dp16
g4
Nsg5
S'62238202412183022f05a50ac00100cd02ff01ca01848a01058b032f06058002000a880128'
p17
sg7
S'ffffffffffffffffffff'
p18
sg11
S'2F05'
p19
sg13
S'transparent'
p20
sba(i__main__
EF
p21
(dp22
g4
Nsg5
S'622182054221006e0583022f06a506c00100ca01808a01058b032f0604800202268800'
p23
sg7
(lp24
S'800101a40683010a95010880010690008001609700ffffffffffffffffffffffffffffffffffffffffffffffffffffffffffffffffffffffffffffffffffffffffffffffffffffffffffffffffffffffffffffffffffffffffffffffffffffffffffffffffffffffffffffffffff'
p25
aS'80010190008001029700800118a40683010a950108ffffffffffffffffffffffffffffffffffffffffffffffffffffffffffffffffffffffffffffffffffffffffffffffffffffffffffffffffffffffffffffffffffffffffffffffffffffffffffffffffffffffffffffffffff'
p26
aS'800101a40683010195010880011aa40683010a950108ffffffffffffffffffffffffffffffffffffffffffffffffffffffffffffffffffffffffffffffffffffffffffffffffffffffffffffffffffffffffffffffffffffffffffffffffffffffffffffffffffffffffffffffff'
p27
aS'800101900080011aa40683010a950108ffffffffffffffffffffffffffffffffffffffffffffffffffffffffffffffffffffffffffffffffffffffffffffffffffffffffffffffffffffffffffffffffffffffffffffffffffffffffffffffffffffffffffffffffffffffffffff'
p28
aS'8001019000800102a406830101950108800118a40683010a950108ffffffffffffffffffffffffffffffffffffffffffffffffffffffffffffffffffffffffffffffffffffffffffffffffffffffffffffffffffffffffffffffffffffffffffffffffffffffffffffffffffffff'
p29
asg11
S'2F06'
p30
sg13
g14
sba(i__main__
EF
p31
(dp32
g4
Nsg5
S'621e8202412183022fe2a506c00100ca01808a01058b032f06048002000a8800'
p33
sg7
S'988812010000200493f3'
p34
sg11
S'2FE2'
p35
sg13
g20
sba.