(lp1
(i__main__
EF
p2
(dp3
S'adpu'
p4
NsS'fci'
p5
S'62258202412183026f05a50cc001009b043f002f05ca01808a01058b036f06028002000a880110'
p6
sS'data'
p7
S'ffffffffffffffffffff'
p8
sS'name'
p9
S'6F05'
p10
sS'tp'
p11
S'transparent'
p12
sba(i__main__
EF
p13
(dp14
g4
Nsg5
S'622282054221006e0c83026f06a506c00100ca01808a01058b036f0606800205288801b8'
p15
sg7
(lp16
S'8001079000800160a406830101950108ffffffffffffffffffffffffffffffffffffffffffffffffffffffffffffffffffffffffffffffffffffffffffffffffffffffffffffffffffffffffffffffffffffffffffffffffffffffffffffffffffffffffffffffffffffffffffff'
p17
aS'8001019000800102a406830101950108800118a40683010a950108ffffffffffffffffffffffffffffffffffffffffffffffffffffffffffffffffffffffffffffffffffffffffffffffffffffffffffffffffffffffffffffffffffffffffffffffffffffffffffffffffffffff'
p18
aS'800101a40683010195010880011aa40683010a950108ffffffffffffffffffffffffffffffffffffffffffffffffffffffffffffffffffffffffffffffffffffffffffffffffffffffffffffffffffffffffffffffffffffffffffffffffffffffffffffffffffffffffffffffff'
p19
aS'800103a406830101950108800118a40683010a950108ffffffffffffffffffffffffffffffffffffffffffffffffffffffffffffffffffffffffffffffffffffffffffffffffffffffffffffffffffffffffffffffffffffffffffffffffffffffffffffffffffffffffffffffff'
p20
aS'840132a406830101950108800101a406830101950108800102a406830181950108800118a40683010a9501088001209700ffffffffffffffffffffffffffffffffffffffffffffffffffffffffffffffffffffffffffffffffffffffffffffffffffffffffffffffffffffffffff'
p21
aS'800101900080011aa40683010a950108ffffffffffffffffffffffffffffffffffffffffffffffffffffffffffffffffffffffffffffffffffffffffffffffffffffffffffffffffffffffffffffffffffffffffffffffffffffffffffffffffffffffffffffffffffffffffffff'
p22
aS'800101a406830101950108800102a406830181950108800118a40683010a950108ffffffffffffffffffffffffffffffffffffffffffffffffffffffffffffffffffffffffffffffffffffffffffffffffffffffffffffffffffffffffffffffffffffffffffffffffffffffffff'
p23
aS'ffffffffffffffffffffffffffffffffffffffffffffffffffffffffffffffffffffffffffffffffffffffffffffffffffffffffffffffffffffffffffffffffffffffffffffffffffffffffffffffffffffffffffffffffffffffffffffffffffffffffffffffffffffffffffff'
p24
aS'ffffffffffffffffffffffffffffffffffffffffffffffffffffffffffffffffffffffffffffffffffffffffffffffffffffffffffffffffffffffffffffffffffffffffffffffffffffffffffffffffffffffffffffffffffffffffffffffffffffffffffffffffffffffffffff'
p25
aS'ffffffffffffffffffffffffffffffffffffffffffffffffffffffffffffffffffffffffffffffffffffffffffffffffffffffffffffffffffffffffffffffffffffffffffffffffffffffffffffffffffffffffffffffffffffffffffffffffffffffffffffffffffffffffffff'
p26
aS'ffffffffffffffffffffffffffffffffffffffffffffffffffffffffffffffffffffffffffffffffffffffffffffffffffffffffffffffffffffffffffffffffffffffffffffffffffffffffffffffffffffffffffffffffffffffffffffffffffffffffffffffffffffffffffff'
p27
aS'ffffffffffffffffffffffffffffffffffffffffffffffffffffffffffffffffffffffffffffffffffffffffffffffffffffffffffffffffffffffffffffffffffffffffffffffffffffffffffffffffffffffffffffffffffffffffffffffffffffffffffffffffffffffffffff'
p28
asg9
S'6F06'
p29
sg11
S'linear'
p30
sba(i__main__
EF
p31
(dp32
g4
Nsg5
S'62278202412183026f07a50ec001009b063f007f206f07ca01808a01058b036f060380020009880138'
p33
sg7
S'089910070000200493'
p34
sg9
S'6F07'
p35
sg11
g12
sba(i__main__
EF
p36
(dp37
g4
Nsg5
S'621f8202412183026f08a506c00100ca01808a01058b036f060480020021880140'
p38
sg7
S'07ffffffffffffffffffffffffffffffffffffffffffffffffffffffffffffffff'
p39
sg9
S'6F08'
p40
sg11
g12
sba(i__main__
EF
p41
(dp42
g4
Nsg5
S'621f8202412183026f09a506c00100ca01808a01058b036f060480020021880148'
p43
sg7
S'07ffffffffffffffffffffffffffffffffffffffffffffffffffffffffffffffff'
p44
sg9
S'6F09'
p45
sg11
g12
sba(i__main__
EF
p46
(dp47
g4
Nsg5
S'62278202412183026f31a50ec001009b063f007f206f31ca01808a01058b036f060380020001880190'
p48
sg7
S'05'
p49
sg9
S'6F31'
p50
sg11
g12
sba(i__main__
EF
p51
(dp52
g4
Nsg5
S'62268202412183026f37a50ec001009b063f007f206f37ca01808a01058b036f0604800200038800'
p53
sg7
S'000000'
p54
sg9
S'6F37'
p55
sg11
g12
sba(i__main__
EF
p56
(dp57
g4
Nsg5
S'621f8202412183026f38a506c00100ca01808a01058b036f060380020009880120'
p58
sg7
S'9e6b1dfc67f6580000'
p59
sg9
S'6F38'
p60
sg11
g12
sba(i__main__
EF
p61
(dp62
g4
Nsg5
S'622a8205462100031483026f39a50ec001009b063f007f206f39ca01808a01058b036f06058002003c8801e0'
p63
sg7
(lp64
S'000000'
p65
aS'000000'
p66
aS'000000'
p67
aS'000000'
p68
aS'000000'
p69
aS'000000'
p70
aS'000000'
p71
aS'000000'
p72
aS'000000'
p73
aS'000000'
p74
aS'000000'
p75
aS'000000'
p76
aS'000000'
p77
aS'000000'
p78
aS'000000'
p79
aS'000000'
p80
aS'000000'
p81
aS'000000'
p82
aS'000000'
p83
aS'000000'
p84
asg9
S'6F39'
p85
sg11
S'cyclic'
p86
sba(i__main__
EF
p87
(dp88
g4
Nsg5
S'622982054221001c1483026f3ba50ec001009b063f007f106f3bca01808a01058b036f0607800202308800'
p89
sg7
(lp90
S'ffffffffffffffffffffffffffffffffffffffffffffffffffffffff'
p91
aS'ffffffffffffffffffffffffffffffffffffffffffffffffffffffff'
p92
aS'ffffffffffffffffffffffffffffffffffffffffffffffffffffffff'
p93
aS'ffffffffffffffffffffffffffffffffffffffffffffffffffffffff'
p94
aS'ffffffffffffffffffffffffffffffffffffffffffffffffffffffff'
p95
aS'ffffffffffffffffffffffffffffffffffffffffffffffffffffffff'
p96
aS'ffffffffffffffffffffffffffffffffffffffffffffffffffffffff'
p97
aS'ffffffffffffffffffffffffffffffffffffffffffffffffffffffff'
p98
aS'ffffffffffffffffffffffffffffffffffffffffffffffffffffffff'
p99
aS'ffffffffffffffffffffffffffffffffffffffffffffffffffffffff'
p100
aS'ffffffffffffffffffffffffffffffffffffffffffffffffffffffff'
p101
aS'ffffffffffffffffffffffffffffffffffffffffffffffffffffffff'
p102
aS'ffffffffffffffffffffffffffffffffffffffffffffffffffffffff'
p103
aS'ffffffffffffffffffffffffffffffffffffffffffffffffffffffff'
p104
aS'ffffffffffffffffffffffffffffffffffffffffffffffffffffffff'
p105
aS'ffffffffffffffffffffffffffffffffffffffffffffffffffffffff'
p106
aS'ffffffffffffffffffffffffffffffffffffffffffffffffffffffff'
p107
aS'ffffffffffffffffffffffffffffffffffffffffffffffffffffffff'
p108
aS'ffffffffffffffffffffffffffffffffffffffffffffffffffffffff'
p109
aS'ffffffffffffffffffffffffffffffffffffffffffffffffffffffff'
p110
asg9
S'6F3B'
p111
sg11
g30
sba(i__main__
EF
p112
(dp113
g4
Nsg5
S'62298205422100b01e83026f3ca50ec001009b063f007f106f3cca01808a01058b036f0604800214a08800'
p114
sg7
(lp115
S'00ffffffffffffffffffffffffffffffffffffffffffffffffffffffffffffffffffffffffffffffffffffffffffffffffffffffffffffffffffffffffffffffffffffffffffffffffffffffffffffffffffffffffffffffffffffffffffffffffffffffffffffffffffffffffffffffffffffffffffffffffffffffffffffffffffffffffffffffffffffffffffffffffffffffffffffffffffffffffffffffffffffffffffffffffffffffffffffff'
p116
aS'00ffffffffffffffffffffffffffffffffffffffffffffffffffffffffffffffffffffffffffffffffffffffffffffffffffffffffffffffffffffffffffffffffffffffffffffffffffffffffffffffffffffffffffffffffffffffffffffffffffffffffffffffffffffffffffffffffffffffffffffffffffffffffffffffffffffffffffffffffffffffffffffffffffffffffffffffffffffffffffffffffffffffffffffffffffffffffffffff'
p117
aS'00ffffffffffffffffffffffffffffffffffffffffffffffffffffffffffffffffffffffffffffffffffffffffffffffffffffffffffffffffffffffffffffffffffffffffffffffffffffffffffffffffffffffffffffffffffffffffffffffffffffffffffffffffffffffffffffffffffffffffffffffffffffffffffffffffffffffffffffffffffffffffffffffffffffffffffffffffffffffffffffffffffffffffffffffffffffffffffffff'
p118
aS'00ffffffffffffffffffffffffffffffffffffffffffffffffffffffffffffffffffffffffffffffffffffffffffffffffffffffffffffffffffffffffffffffffffffffffffffffffffffffffffffffffffffffffffffffffffffffffffffffffffffffffffffffffffffffffffffffffffffffffffffffffffffffffffffffffffffffffffffffffffffffffffffffffffffffffffffffffffffffffffffffffffffffffffffffffffffffffffffff'
p119
aS'00ffffffffffffffffffffffffffffffffffffffffffffffffffffffffffffffffffffffffffffffffffffffffffffffffffffffffffffffffffffffffffffffffffffffffffffffffffffffffffffffffffffffffffffffffffffffffffffffffffffffffffffffffffffffffffffffffffffffffffffffffffffffffffffffffffffffffffffffffffffffffffffffffffffffffffffffffffffffffffffffffffffffffffffffffffffffffffffff'
p120
aS'00ffffffffffffffffffffffffffffffffffffffffffffffffffffffffffffffffffffffffffffffffffffffffffffffffffffffffffffffffffffffffffffffffffffffffffffffffffffffffffffffffffffffffffffffffffffffffffffffffffffffffffffffffffffffffffffffffffffffffffffffffffffffffffffffffffffffffffffffffffffffffffffffffffffffffffffffffffffffffffffffffffffffffffffffffffffffffffffff'
p121
aS'00ffffffffffffffffffffffffffffffffffffffffffffffffffffffffffffffffffffffffffffffffffffffffffffffffffffffffffffffffffffffffffffffffffffffffffffffffffffffffffffffffffffffffffffffffffffffffffffffffffffffffffffffffffffffffffffffffffffffffffffffffffffffffffffffffffffffffffffffffffffffffffffffffffffffffffffffffffffffffffffffffffffffffffffffffffffffffffffff'
p122
aS'00ffffffffffffffffffffffffffffffffffffffffffffffffffffffffffffffffffffffffffffffffffffffffffffffffffffffffffffffffffffffffffffffffffffffffffffffffffffffffffffffffffffffffffffffffffffffffffffffffffffffffffffffffffffffffffffffffffffffffffffffffffffffffffffffffffffffffffffffffffffffffffffffffffffffffffffffffffffffffffffffffffffffffffffffffffffffffffffff'
p123
aS'00ffffffffffffffffffffffffffffffffffffffffffffffffffffffffffffffffffffffffffffffffffffffffffffffffffffffffffffffffffffffffffffffffffffffffffffffffffffffffffffffffffffffffffffffffffffffffffffffffffffffffffffffffffffffffffffffffffffffffffffffffffffffffffffffffffffffffffffffffffffffffffffffffffffffffffffffffffffffffffffffffffffffffffffffffffffffffffffff'
p124
aS'00ffffffffffffffffffffffffffffffffffffffffffffffffffffffffffffffffffffffffffffffffffffffffffffffffffffffffffffffffffffffffffffffffffffffffffffffffffffffffffffffffffffffffffffffffffffffffffffffffffffffffffffffffffffffffffffffffffffffffffffffffffffffffffffffffffffffffffffffffffffffffffffffffffffffffffffffffffffffffffffffffffffffffffffffffffffffffffffff'
p125
aS'00ffffffffffffffffffffffffffffffffffffffffffffffffffffffffffffffffffffffffffffffffffffffffffffffffffffffffffffffffffffffffffffffffffffffffffffffffffffffffffffffffffffffffffffffffffffffffffffffffffffffffffffffffffffffffffffffffffffffffffffffffffffffffffffffffffffffffffffffffffffffffffffffffffffffffffffffffffffffffffffffffffffffffffffffffffffffffffffff'
p126
aS'00ffffffffffffffffffffffffffffffffffffffffffffffffffffffffffffffffffffffffffffffffffffffffffffffffffffffffffffffffffffffffffffffffffffffffffffffffffffffffffffffffffffffffffffffffffffffffffffffffffffffffffffffffffffffffffffffffffffffffffffffffffffffffffffffffffffffffffffffffffffffffffffffffffffffffffffffffffffffffffffffffffffffffffffffffffffffffffffff'
p127
aS'00ffffffffffffffffffffffffffffffffffffffffffffffffffffffffffffffffffffffffffffffffffffffffffffffffffffffffffffffffffffffffffffffffffffffffffffffffffffffffffffffffffffffffffffffffffffffffffffffffffffffffffffffffffffffffffffffffffffffffffffffffffffffffffffffffffffffffffffffffffffffffffffffffffffffffffffffffffffffffffffffffffffffffffffffffffffffffffffff'
p128
aS'00ffffffffffffffffffffffffffffffffffffffffffffffffffffffffffffffffffffffffffffffffffffffffffffffffffffffffffffffffffffffffffffffffffffffffffffffffffffffffffffffffffffffffffffffffffffffffffffffffffffffffffffffffffffffffffffffffffffffffffffffffffffffffffffffffffffffffffffffffffffffffffffffffffffffffffffffffffffffffffffffffffffffffffffffffffffffffffffff'
p129
aS'00ffffffffffffffffffffffffffffffffffffffffffffffffffffffffffffffffffffffffffffffffffffffffffffffffffffffffffffffffffffffffffffffffffffffffffffffffffffffffffffffffffffffffffffffffffffffffffffffffffffffffffffffffffffffffffffffffffffffffffffffffffffffffffffffffffffffffffffffffffffffffffffffffffffffffffffffffffffffffffffffffffffffffffffffffffffffffffffff'
p130
aS'00ffffffffffffffffffffffffffffffffffffffffffffffffffffffffffffffffffffffffffffffffffffffffffffffffffffffffffffffffffffffffffffffffffffffffffffffffffffffffffffffffffffffffffffffffffffffffffffffffffffffffffffffffffffffffffffffffffffffffffffffffffffffffffffffffffffffffffffffffffffffffffffffffffffffffffffffffffffffffffffffffffffffffffffffffffffffffffffff'
p131
aS'00ffffffffffffffffffffffffffffffffffffffffffffffffffffffffffffffffffffffffffffffffffffffffffffffffffffffffffffffffffffffffffffffffffffffffffffffffffffffffffffffffffffffffffffffffffffffffffffffffffffffffffffffffffffffffffffffffffffffffffffffffffffffffffffffffffffffffffffffffffffffffffffffffffffffffffffffffffffffffffffffffffffffffffffffffffffffffffffff'
p132
aS'00ffffffffffffffffffffffffffffffffffffffffffffffffffffffffffffffffffffffffffffffffffffffffffffffffffffffffffffffffffffffffffffffffffffffffffffffffffffffffffffffffffffffffffffffffffffffffffffffffffffffffffffffffffffffffffffffffffffffffffffffffffffffffffffffffffffffffffffffffffffffffffffffffffffffffffffffffffffffffffffffffffffffffffffffffffffffffffffff'
p133
aS'00ffffffffffffffffffffffffffffffffffffffffffffffffffffffffffffffffffffffffffffffffffffffffffffffffffffffffffffffffffffffffffffffffffffffffffffffffffffffffffffffffffffffffffffffffffffffffffffffffffffffffffffffffffffffffffffffffffffffffffffffffffffffffffffffffffffffffffffffffffffffffffffffffffffffffffffffffffffffffffffffffffffffffffffffffffffffffffffff'
p134
aS'00ffffffffffffffffffffffffffffffffffffffffffffffffffffffffffffffffffffffffffffffffffffffffffffffffffffffffffffffffffffffffffffffffffffffffffffffffffffffffffffffffffffffffffffffffffffffffffffffffffffffffffffffffffffffffffffffffffffffffffffffffffffffffffffffffffffffffffffffffffffffffffffffffffffffffffffffffffffffffffffffffffffffffffffffffffffffffffffff'
p135
aS'00ffffffffffffffffffffffffffffffffffffffffffffffffffffffffffffffffffffffffffffffffffffffffffffffffffffffffffffffffffffffffffffffffffffffffffffffffffffffffffffffffffffffffffffffffffffffffffffffffffffffffffffffffffffffffffffffffffffffffffffffffffffffffffffffffffffffffffffffffffffffffffffffffffffffffffffffffffffffffffffffffffffffffffffffffffffffffffffff'
p136
aS'00ffffffffffffffffffffffffffffffffffffffffffffffffffffffffffffffffffffffffffffffffffffffffffffffffffffffffffffffffffffffffffffffffffffffffffffffffffffffffffffffffffffffffffffffffffffffffffffffffffffffffffffffffffffffffffffffffffffffffffffffffffffffffffffffffffffffffffffffffffffffffffffffffffffffffffffffffffffffffffffffffffffffffffffffffffffffffffffff'
p137
aS'00ffffffffffffffffffffffffffffffffffffffffffffffffffffffffffffffffffffffffffffffffffffffffffffffffffffffffffffffffffffffffffffffffffffffffffffffffffffffffffffffffffffffffffffffffffffffffffffffffffffffffffffffffffffffffffffffffffffffffffffffffffffffffffffffffffffffffffffffffffffffffffffffffffffffffffffffffffffffffffffffffffffffffffffffffffffffffffffff'
p138
aS'00ffffffffffffffffffffffffffffffffffffffffffffffffffffffffffffffffffffffffffffffffffffffffffffffffffffffffffffffffffffffffffffffffffffffffffffffffffffffffffffffffffffffffffffffffffffffffffffffffffffffffffffffffffffffffffffffffffffffffffffffffffffffffffffffffffffffffffffffffffffffffffffffffffffffffffffffffffffffffffffffffffffffffffffffffffffffffffffff'
p139
aS'00ffffffffffffffffffffffffffffffffffffffffffffffffffffffffffffffffffffffffffffffffffffffffffffffffffffffffffffffffffffffffffffffffffffffffffffffffffffffffffffffffffffffffffffffffffffffffffffffffffffffffffffffffffffffffffffffffffffffffffffffffffffffffffffffffffffffffffffffffffffffffffffffffffffffffffffffffffffffffffffffffffffffffffffffffffffffffffffff'
p140
aS'00ffffffffffffffffffffffffffffffffffffffffffffffffffffffffffffffffffffffffffffffffffffffffffffffffffffffffffffffffffffffffffffffffffffffffffffffffffffffffffffffffffffffffffffffffffffffffffffffffffffffffffffffffffffffffffffffffffffffffffffffffffffffffffffffffffffffffffffffffffffffffffffffffffffffffffffffffffffffffffffffffffffffffffffffffffffffffffffff'
p141
aS'00ffffffffffffffffffffffffffffffffffffffffffffffffffffffffffffffffffffffffffffffffffffffffffffffffffffffffffffffffffffffffffffffffffffffffffffffffffffffffffffffffffffffffffffffffffffffffffffffffffffffffffffffffffffffffffffffffffffffffffffffffffffffffffffffffffffffffffffffffffffffffffffffffffffffffffffffffffffffffffffffffffffffffffffffffffffffffffffff'
p142
aS'00ffffffffffffffffffffffffffffffffffffffffffffffffffffffffffffffffffffffffffffffffffffffffffffffffffffffffffffffffffffffffffffffffffffffffffffffffffffffffffffffffffffffffffffffffffffffffffffffffffffffffffffffffffffffffffffffffffffffffffffffffffffffffffffffffffffffffffffffffffffffffffffffffffffffffffffffffffffffffffffffffffffffffffffffffffffffffffffff'
p143
aS'00ffffffffffffffffffffffffffffffffffffffffffffffffffffffffffffffffffffffffffffffffffffffffffffffffffffffffffffffffffffffffffffffffffffffffffffffffffffffffffffffffffffffffffffffffffffffffffffffffffffffffffffffffffffffffffffffffffffffffffffffffffffffffffffffffffffffffffffffffffffffffffffffffffffffffffffffffffffffffffffffffffffffffffffffffffffffffffffff'
p144
aS'00ffffffffffffffffffffffffffffffffffffffffffffffffffffffffffffffffffffffffffffffffffffffffffffffffffffffffffffffffffffffffffffffffffffffffffffffffffffffffffffffffffffffffffffffffffffffffffffffffffffffffffffffffffffffffffffffffffffffffffffffffffffffffffffffffffffffffffffffffffffffffffffffffffffffffffffffffffffffffffffffffffffffffffffffffffffffffffffff'
p145
asg9
S'6F3C'
p146
sg11
g30
sba(i__main__
EF
p147
(dp148
g4
Nsg5
S'62268202412183026f3ea50ec001009b063f007f206f3eca01808a01058b036f06038002000a8800'
p149
sg7
S'ffffffffffffffffffff'
p150
sg9
S'6F3E'
p151
sg11
g12
sba(i__main__
EF
p152
(dp153
g4
Nsg5
S'62268202412183026f3fa50ec001009b063f007f206f3fca01808a01058b036f06038002000a8800'
p154
sg7
S'ffffffffffffffffffff'
p155
sg9
S'6F3F'
p156
sg11
g12
sba(i__main__
EF
p157
(dp158
g4
Nsg5
S'62298205422100220683026f40a50ec001009b063f007f106f40ca01808a01058b036f0603800200cc8800'
p159
sg7
(lp160
S'ffffffffffffffffffffffffffffffffffff07918812014230f9ffffffffffffffff'
p161
aS'ffffffffffffffffffffffffffffffffffffffffffffffffffffffffffffffffffff'
p162
aS'ffffffffffffffffffffffffffffffffffffffffffffffffffffffffffffffffffff'
p163
aS'ffffffffffffffffffffffffffffffffffffffffffffffffffffffffffffffffffff'
p164
aS'ffffffffffffffffffffffffffffffffffffffffffffffffffffffffffffffffffff'
p165
aS'ffffffffffffffffffffffffffffffffffffffffffffffffffffffffffffffffffff'
p166
asg9
S'6F40'
p167
sg11
g30
sba(i__main__
EF
p168
(dp169
g4
Nsg5
S'62268202412183026f41a50ec001009b063f007f206f41ca01808a01058b036f0604800200058800'
p170
sg7
S'ffffff0000'
p171
sg9
S'6F41'
p172
sg11
g12
sba(i__main__
EF
p173
(dp174
g4
Nsg5
S'62298205422100340283026f42a50ec001009b063f007f106f42ca01808a01058b036f0604800200688800'
p175
sg7
(lp176
S'ffffffffffffffffffffffffffffffffffffffffffffffffe1ffffffffffffffffffffffff0581005155f5ffffffffffff000000'
p177
aS'ffffffffffffffffffffffffffffffffffffffffffffffffffffffffffffffffffffffffffffffffffffffffffffffffffffffff'
p178
asg9
S'6F42'
p179
sg11
g30
sba(i__main__
EF
p180
(dp181
g4
Nsg5
S'62268202412183026f43a50ec001009b063f007f106f43ca01808a01058b036f0604800200028800'
p182
sg7
S'ffff'
p183
sg9
S'6F43'
p184
sg11
g12
sba(i__main__
EF
p185
(dp186
g4
Nsg5
S'62268202412183026f45a50ec001009b063f007f206f45ca01808a01058b036f06048002000a8800'
p187
sg7
S'11041112111fffffffff'
p188
sg9
S'6F45'
p189
sg11
g12
sba(i__main__
EF
p190
(dp191
g4
Nsg5
S'62268202412183026f46a50ec001009b063f007f206f46ca01808a01058b036f0606800200118800'
p192
sg7
S'00ffffffffffffffffffffffffffffffff'
p193
sg9
S'6F46'
p194
sg11
g12
sba(i__main__
EF
p195
(dp196
g4
Nsg5
S'621f8202412183026f48a506c00100ca01808a01058b036f060380020002880170'
p197
sg7
S'ffff'
p198
sg9
S'6F48'
p199
sg11
g12
sba(i__main__
EF
p200
(dp201
g4
Nsg5
S'62298205422100221483026f49a50ec001009b063f007f106f49ca01808a01058b036f0603800202a88800'
p202
sg7
(lp203
S'ffffffffffffffffffffffffffffffffffffffffffffffffffffffffffffffffffff'
p204
aS'ffffffffffffffffffffffffffffffffffffffffffffffffffffffffffffffffffff'
p205
aS'ffffffffffffffffffffffffffffffffffffffffffffffffffffffffffffffffffff'
p206
aS'ffffffffffffffffffffffffffffffffffffffffffffffffffffffffffffffffffff'
p207
aS'ffffffffffffffffffffffffffffffffffffffffffffffffffffffffffffffffffff'
p208
aS'ffffffffffffffffffffffffffffffffffffffffffffffffffffffffffffffffffff'
p209
aS'ffffffffffffffffffffffffffffffffffffffffffffffffffffffffffffffffffff'
p210
aS'ffffffffffffffffffffffffffffffffffffffffffffffffffffffffffffffffffff'
p211
aS'ffffffffffffffffffffffffffffffffffffffffffffffffffffffffffffffffffff'
p212
aS'ffffffffffffffffffffffffffffffffffffffffffffffffffffffffffffffffffff'
p213
aS'ffffffffffffffffffffffffffffffffffffffffffffffffffffffffffffffffffff'
p214
aS'ffffffffffffffffffffffffffffffffffffffffffffffffffffffffffffffffffff'
p215
aS'ffffffffffffffffffffffffffffffffffffffffffffffffffffffffffffffffffff'
p216
aS'ffffffffffffffffffffffffffffffffffffffffffffffffffffffffffffffffffff'
p217
aS'ffffffffffffffffffffffffffffffffffffffffffffffffffffffffffffffffffff'
p218
aS'ffffffffffffffffffffffffffffffffffffffffffffffffffffffffffffffffffff'
p219
aS'ffffffffffffffffffffffffffffffffffffffffffffffffffffffffffffffffffff'
p220
aS'ffffffffffffffffffffffffffffffffffffffffffffffffffffffffffffffffffff'
p221
aS'ffffffffffffffffffffffffffffffffffffffffffffffffffffffffffffffffffff'
p222
aS'ffffffffffffffffffffffffffffffffffffffffffffffffffffffffffffffffffff'
p223
asg9
S'6F49'
p224
sg11
g30
sba(i__main__
EF
p225
(dp226
g4
Nsg5
S'622982054221000d1083026f4ba50ec001009b063f007f106f4bca01808a01058b036f0607800200d08800'
p227
sg7
(lp228
S'00ffffffffffffffffffffffff'
p229
aS'00ffffffffffffffffffffffff'
p230
aS'00ffffffffffffffffffffffff'
p231
aS'00ffffffffffffffffffffffff'
p232
aS'00ffffffffffffffffffffffff'
p233
aS'00ffffffffffffffffffffffff'
p234
aS'00ffffffffffffffffffffffff'
p235
aS'00ffffffffffffffffffffffff'
p236
aS'00ffffffffffffffffffffffff'
p237
aS'00ffffffffffffffffffffffff'
p238
aS'00ffffffffffffffffffffffff'
p239
aS'00ffffffffffffffffffffffff'
p240
aS'00ffffffffffffffffffffffff'
p241
aS'00ffffffffffffffffffffffff'
p242
aS'00ffffffffffffffffffffffff'
p243
aS'00ffffffffffffffffffffffff'
p244
asg9
S'6F4B'
p245
sg11
g30
sba(i__main__
EF
p246
(dp247
g4
Nsg5
S'622982054221000d1083026f4ca50ec001009b063f007f106f4cca01808a01058b036f0603800200d08800'
p248
sg7
(lp249
S'00ffffffffffffffffffffffff'
p250
aS'00ffffffffffffffffffffffff'
p251
aS'00ffffffffffffffffffffffff'
p252
aS'00ffffffffffffffffffffffff'
p253
aS'00ffffffffffffffffffffffff'
p254
aS'00ffffffffffffffffffffffff'
p255
aS'00ffffffffffffffffffffffff'
p256
aS'00ffffffffffffffffffffffff'
p257
aS'00ffffffffffffffffffffffff'
p258
aS'00ffffffffffffffffffffffff'
p259
aS'00ffffffffffffffffffffffff'
p260
aS'00ffffffffffffffffffffffff'
p261
aS'00ffffffffffffffffffffffff'
p262
aS'00ffffffffffffffffffffffff'
p263
aS'00ffffffffffffffffffffffff'
p264
aS'00ffffffffffffffffffffffff'
p265
asg9
S'6F4C'
p266
sg11
g30
sba(i__main__
EF
p267
(dp268
g4
Nsg5
S'622182054221000d0a83026f4ea506c00100ca01808a01058b036f0604800200828800'
p269
sg7
(lp270
S'ffffffffffffffffffffffffff'
p271
aS'ffffffffffffffffffffffffff'
p272
aS'ffffffffffffffffffffffffff'
p273
aS'ffffffffffffffffffffffffff'
p274
aS'ffffffffffffffffffffffffff'
p275
aS'ffffffffffffffffffffffffff'
p276
aS'ffffffffffffffffffffffffff'
p277
aS'ffffffffffffffffffffffffff'
p278
aS'ffffffffffffffffffffffffff'
p279
aS'ffffffffffffffffffffffffff'
p280
asg9
S'6F4E'
p281
sg11
g30
sba(i__main__
EF
p282
(dp283
g4
Nsg5
S'622282054221000f0583026f4fa506c00100ca01808a01058b036f06048002004b8801b0'
p284
sg7
(lp285
S'ffffffffffffffffffffffffffffff'
p286
aS'ffffffffffffffffffffffffffffff'
p287
aS'ffffffffffffffffffffffffffffff'
p288
aS'ffffffffffffffffffffffffffffff'
p289
aS'ffffffffffffffffffffffffffffff'
p290
asg9
S'6F4F'
p291
sg11
g30
sba(i__main__
EF
p292
(dp293
g4
Nsg5
S'621f8202412183026f56a506c00100ca01808a01058b036f060780020009880128'
p294
sg7
S'000000000000000000'
p295
sg9
S'6F56'
p296
sg11
g12
sba(i__main__
EF
p297
(dp298
g4
Nsg5
S'621f8202412183026f5ba506c00100ca01808a01058b036f060480020006880178'
p299
sg7
S'000000000000'
p300
sg9
S'6F5B'
p301
sg11
g12
sba(i__main__
EF
p302
(dp303
g4
Nsg5
S'621f8202412183026f5ca506c00100ca01808a01058b036f060380020003880180'
p304
sg7
S'ffffff'
p305
sg9
S'6F5C'
p306
sg11
g12
sba(i__main__
EF
p307
(dp308
g4
Nsg5
S'621f8202412183026f5ca506c00100ca01808a01058b036f060380020003880180'
p309
sg7
S'ffffff'
p310
sg9
g306
sg11
g12
sba(i__main__
EF
p311
(dp312
g4
Nsg5
S'62278202412183026f60a50ec001009b063f007f206f60ca01808a01058b036f06038002003c880150'
p313
sg7
S'ffffffffffffffffffffffffffffffffffffffffffffffffffffffffffffffffffffffffffffffffffffffffffffffffffffffffffffffffffffffff'
p314
sg9
S'6F60'
p315
sg11
g12
sba(i__main__
EF
p316
(dp317
g4
Nsg5
S'62278202412183026f61a50ec001009b063f007f206f61ca01808a01058b036f06038002003c880188'
p318
sg7
S'ffffffffffffffffffffffffffffffffffffffffffffffffffffffffffffffffffffffffffffffffffffffffffffffffffffffffffffffffffffffff'
p319
sg9
S'6F61'
p320
sg11
g12
sba(i__main__
EF
p321
(dp322
g4
Nsg5
S'621f8202412183026f62a506c00100ca01808a01058b036f060380020019880198'
p323
sg7
S'ffffffffffffffffffffffffffffffffffffffffffffffffff'
p324
sg9
S'6F62'
p325
sg11
g12
sba(i__main__
EF
p326
(dp327
g4
Nsg5
S'62278202412183026f73a50ec001009b063f007f206f53ca01808a01058b036f06048002000e880160'
p328
sg7
S'ffffffffffffffffff00fffeff01'
p329
sg9
S'6F73'
p330
sg11
g12
sba(i__main__
EF
p331
(dp332
g4
Nsg5
S'62278202412183026f78a50ec001009b063f007f206f78ca01808a01058b036f060380020002880130'
p333
sg7
S'0200'
p334
sg9
S'6F78'
p335
sg11
g12
sba(i__main__
EF
p336
(dp337
g4
Nsg5
S'62278202412183026f7ba50ec001009b063f007f206f7bca01808a01058b036f06048002000c880168'
p338
sg7
S'62f21062f22062f23062f270'
p339
sg9
S'6F7B'
p340
sg11
g12
sba(i__main__
EF
p341
(dp342
g4
Nsg5
S'62278202412183026f7ea50ec001009b063f007f206f7eca01808a01058b036f06048002000b880158'
p343
sg7
S'fffffffffffffffffe0000'
p344
sg9
S'6F7E'
p345
sg11
g12
sba(i__main__
EF
p346
(dp347
g4
Nsg5
S'62278202412183026fada50ec001009b063f007f206fadca01808a01058b036f060680020004880118'
p348
sg7
S'00000002'
p349
sg9
S'6FAD'
p350
sg11
g12
sba(i__main__
EF
p351
(dp352
g4
Nsg5
S'62268202412183026fb1a50ec001009b063f007f206fb1ca01808a01058b036f0604800200508800'
p353
sg7
S'ffffffffffffffffffffffffffffffffffffffffffffffffffffffffffffffffffffffffffffffffffffffffffffffffffffffffffffffffffffffffffffffffffffffffffffffffffffffffffffffff'
p354
sg9
S'6FB1'
p355
sg11
g12
sba(i__main__
EF
p356
(dp357
g4
Nsg5
S'62268202412183026fb2a50ec001009b063f007f206fb2ca01808a01058b036f0604800200078800'
p358
sg7
S'ffffffffffffff'
p359
sg9
S'6FB2'
p360
sg11
g12
sba(i__main__
EF
p361
(dp362
g4
Nsg5
S'62268202412183026fb3a50ec001009b063f007f206fb3ca01808a01058b036f0604800200508800'
p363
sg7
S'ffffffffffffffffffffffffffffffffffffffffffffffffffffffffffffffffffffffffffffffffffffffffffffffffffffffffffffffffffffffffffffffffffffffffffffffffffffffffffffffff'
p364
sg9
S'6FB3'
p365
sg11
g12
sba(i__main__
EF
p366
(dp367
g4
Nsg5
S'62268202412183026fb4a50ec001009b063f007f206fb4ca01808a01058b036f0604800200078800'
p368
sg7
S'ffffffffffffff'
p369
sg9
S'6FB4'
p370
sg11
g12
sba(i__main__
EF
p371
(dp372
g4
Nsg5
S'62228205422100100583026fb7a506c00100ca01808a01058b036f060680020050880108'
p373
sg7
(lp374
S'ffffffffffffffffffffffffffffff00'
p375
aS'ffffffffffffffffffffffffffffff00'
p376
aS'ffffffffffffffffffffffffffffff00'
p377
aS'ffffffffffffffffffffffffffffff00'
p378
aS'ffffffffffffffffffffffffffffff00'
p379
asg9
S'6FB7'
p380
sg11
g30
sba(i__main__
EF
p381
(dp382
g4
Nsg5
S'621e8202412183026fc4a506c00100ca01808a01058b036f0604800200408800'
p383
sg7
S'ffffffffffffffffffffffffffffffffffffffffffffffffffffffffffffffffffffffffffffffffffffffffffffffffffffffffffffffffffffffffffffffff'
p384
sg9
S'6FC4'
p385
sg11
g12
sba(i__main__
EF
p386
(dp387
g4
Nsg5
S'62228205422100080183026fc6a506c00100ca01808a01058b036f0606800200088801d0'
p388
sg7
(lp389
S'ffffffffffffffff'
p390
asg9
S'6FC6'
p391
sg11
g30
sba(i__main__
EF
p392
(dp393
g4
Nsg5
S'62218205422100040183026fc9a506c00100ca01808a01058b036f0604800200048800'
p394
sg7
(lp395
S'ffffffff'
p396
asg9
S'6FC9'
p397
sg11
g30
sba(i__main__
EF
p398
(dp399
g4
Nsg5
S'62218205422100050183026fcaa506c00100ca01808a01058b036f0604800200058800'
p400
sg7
(lp401
S'0000000000'
p402
asg9
S'6FCA'
p403
sg11
g30
sba(i__main__
EF
p404
(dp405
g4
Nsg5
S'621e8202412183026fd0a506c00100ca01808a01058b036f0603800200088800'
p406
sg7
S'ffffffffffffffff'
p407
sg9
S'6FD0'
p408
sg11
g12
sba(i__main__
EF
p409
(dp410
g4
Nsg5
S'621e8202412183026fd4a506c00100ca01808a01058b036f0604800200028800'
p411
sg7
S'ffff'
p412
sg9
S'6FD4'
p413
sg11
g12
sba(i__main__
EF
p414
(dp415
g4
Nsg5
S'621e8202412183026fd5a506c00100ca01808a01058b036f0604800200028800'
p416
sg7
S'ffff'
p417
sg9
S'6FD5'
p418
sg11
g12
sba(i__main__
EF
p419
(dp420
g4
Nsg5
S'621e8202412183026fdea506c00100ca01808a01058b036f06068002000a8800'
p421
sg7
S'ffffffffffffffffffff'
p422
sg9
S'6FDE'
p423
sg11
g12
sba(i__main__
EF
p424
(dp425
g4
Nsg5
S'621e8202412183026feca506c00100ca01808a01058b036f0604800200208800'
p426
sg7
S'ffffffffffffffffffffffffffffffffffffffffffffffffffffffffffffffff'
p427
sg9
S'6FEC'
p428
sg11
g12
sba.