(lp1
(i__main__
EF
p2
(dp3
S'adpu'
p4
NsS'fci'
p5
S'622182054221006e1083026f06a506c00100ca01808a01058b036f0606800206e08800'
p6
sS'data'
p7
(lp8
S'800101a40683010a95010880010690008001609700ffffffffffffffffffffffffffffffffffffffffffffffffffffffffffffffffffffffffffffffffffffffffffffffffffffffffffffffffffffffffffffffffffffffffffffffffffffffffffffffffffffffffffffffffff'
p9
aS'80011ba40683010a950108ffffffffffffffffffffffffffffffffffffffffffffffffffffffffffffffffffffffffffffffffffffffffffffffffffffffffffffffffffffffffffffffffffffffffffffffffffffffffffffffffffffffffffffffffffffffffffffffffffffff'
p10
aS'800103a406830101950108800118a406830181950108ffffffffffffffffffffffffffffffffffffffffffffffffffffffffffffffffffffffffffffffffffffffffffffffffffffffffffffffffffffffffffffffffffffffffffffffffffffffffffffffffffffffffffffffff'
p11
aS'800101a406830101950108800102a406830181950108800118a40683010a950108ffffffffffffffffffffffffffffffffffffffffffffffffffffffffffffffffffffffffffffffffffffffffffffffffffffffffffffffffffffffffffffffffffffffffffffffffffffffffff'
p12
aS'800103a406830101950108800118a40683010a950108ffffffffffffffffffffffffffffffffffffffffffffffffffffffffffffffffffffffffffffffffffffffffffffffffffffffffffffffffffffffffffffffffffffffffffffffffffffffffffffffffffffffffffffffff'
p13
aS'800101900080011aa40683010a950108ffffffffffffffffffffffffffffffffffffffffffffffffffffffffffffffffffffffffffffffffffffffffffffffffffffffffffffffffffffffffffffffffffffffffffffffffffffffffffffffffffffffffffffffffffffffffffff'
p14
aS'800101a40683010195010880011aa40683010a950108ffffffffffffffffffffffffffffffffffffffffffffffffffffffffffffffffffffffffffffffffffffffffffffffffffffffffffffffffffffffffffffffffffffffffffffffffffffffffffffffffffffffffffffffff'
p15
aS'800101a40683010195010880011aa406830181950108ffffffffffffffffffffffffffffffffffffffffffffffffffffffffffffffffffffffffffffffffffffffffffffffffffffffffffffffffffffffffffffffffffffffffffffffffffffffffffffffffffffffffffffffff'
p16
aS'8401329700800103a406830101950108800118a40683010a9501088001209700ffffffffffffffffffffffffffffffffffffffffffffffffffffffffffffffffffffffffffffffffffffffffffffffffffffffffffffffffffffffffffffffffffffffffffffffffffffffffffff'
p17
aS'800103a406830101950108800118a40683010a950108ffffffffffffffffffffffffffffffffffffffffffffffffffffffffffffffffffffffffffffffffffffffffffffffffffffffffffffffffffffffffffffffffffffffffffffffffffffffffffffffffffffffffffffffff'
p18
aS'ffffffffffffffffffffffffffffffffffffffffffffffffffffffffffffffffffffffffffffffffffffffffffffffffffffffffffffffffffffffffffffffffffffffffffffffffffffffffffffffffffffffffffffffffffffffffffffffffffffffffffffffffffffffffffff'
p19
aS'ffffffffffffffffffffffffffffffffffffffffffffffffffffffffffffffffffffffffffffffffffffffffffffffffffffffffffffffffffffffffffffffffffffffffffffffffffffffffffffffffffffffffffffffffffffffffffffffffffffffffffffffffffffffffffff'
p20
aS'ffffffffffffffffffffffffffffffffffffffffffffffffffffffffffffffffffffffffffffffffffffffffffffffffffffffffffffffffffffffffffffffffffffffffffffffffffffffffffffffffffffffffffffffffffffffffffffffffffffffffffffffffffffffffffff'
p21
aS'ffffffffffffffffffffffffffffffffffffffffffffffffffffffffffffffffffffffffffffffffffffffffffffffffffffffffffffffffffffffffffffffffffffffffffffffffffffffffffffffffffffffffffffffffffffffffffffffffffffffffffffffffffffffffffff'
p22
aS'ffffffffffffffffffffffffffffffffffffffffffffffffffffffffffffffffffffffffffffffffffffffffffffffffffffffffffffffffffffffffffffffffffffffffffffffffffffffffffffffffffffffffffffffffffffffffffffffffffffffffffffffffffffffffffff'
p23
aS'ffffffffffffffffffffffffffffffffffffffffffffffffffffffffffffffffffffffffffffffffffffffffffffffffffffffffffffffffffffffffffffffffffffffffffffffffffffffffffffffffffffffffffffffffffffffffffffffffffffffffffffffffffffffffffff'
p24
asS'name'
p25
S'6F06'
p26
sS'tp'
p27
S'linear'
p28
sba(i__main__
EF
p29
(dp30
g4
Nsg5
S'6225820542210022fa83026f3aa50ac00100cd02ff01ca01848a01058b036f0603800221348800'
p31
sg7
(lp32
S'ffffffffffffffffffffffffffffffffffffffffffffffffffffffffffffffffffff'
p33
aS'ffffffffffffffffffffffffffffffffffffffffffffffffffffffffffffffffffff'
p34
aS'ffffffffffffffffffffffffffffffffffffffffffffffffffffffffffffffffffff'
p35
aS'ffffffffffffffffffffffffffffffffffffffffffffffffffffffffffffffffffff'
p36
aS'ffffffffffffffffffffffffffffffffffffffffffffffffffffffffffffffffffff'
p37
aS'ffffffffffffffffffffffffffffffffffffffffffffffffffffffffffffffffffff'
p38
aS'ffffffffffffffffffffffffffffffffffffffffffffffffffffffffffffffffffff'
p39
aS'ffffffffffffffffffffffffffffffffffffffffffffffffffffffffffffffffffff'
p40
aS'ffffffffffffffffffffffffffffffffffffffffffffffffffffffffffffffffffff'
p41
aS'ffffffffffffffffffffffffffffffffffffffffffffffffffffffffffffffffffff'
p42
aS'ffffffffffffffffffffffffffffffffffffffffffffffffffffffffffffffffffff'
p43
aS'ffffffffffffffffffffffffffffffffffffffffffffffffffffffffffffffffffff'
p44
aS'ffffffffffffffffffffffffffffffffffffffffffffffffffffffffffffffffffff'
p45
aS'ffffffffffffffffffffffffffffffffffffffffffffffffffffffffffffffffffff'
p46
aS'ffffffffffffffffffffffffffffffffffffffffffffffffffffffffffffffffffff'
p47
aS'ffffffffffffffffffffffffffffffffffffffffffffffffffffffffffffffffffff'
p48
aS'ffffffffffffffffffffffffffffffffffffffffffffffffffffffffffffffffffff'
p49
aS'ffffffffffffffffffffffffffffffffffffffffffffffffffffffffffffffffffff'
p50
aS'ffffffffffffffffffffffffffffffffffffffffffffffffffffffffffffffffffff'
p51
aS'ffffffffffffffffffffffffffffffffffffffffffffffffffffffffffffffffffff'
p52
aS'ffffffffffffffffffffffffffffffffffffffffffffffffffffffffffffffffffff'
p53
aS'ffffffffffffffffffffffffffffffffffffffffffffffffffffffffffffffffffff'
p54
aS'ffffffffffffffffffffffffffffffffffffffffffffffffffffffffffffffffffff'
p55
aS'ffffffffffffffffffffffffffffffffffffffffffffffffffffffffffffffffffff'
p56
aS'ffffffffffffffffffffffffffffffffffffffffffffffffffffffffffffffffffff'
p57
aS'ffffffffffffffffffffffffffffffffffffffffffffffffffffffffffffffffffff'
p58
aS'ffffffffffffffffffffffffffffffffffffffffffffffffffffffffffffffffffff'
p59
aS'ffffffffffffffffffffffffffffffffffffffffffffffffffffffffffffffffffff'
p60
aS'ffffffffffffffffffffffffffffffffffffffffffffffffffffffffffffffffffff'
p61
aS'ffffffffffffffffffffffffffffffffffffffffffffffffffffffffffffffffffff'
p62
aS'ffffffffffffffffffffffffffffffffffffffffffffffffffffffffffffffffffff'
p63
aS'ffffffffffffffffffffffffffffffffffffffffffffffffffffffffffffffffffff'
p64
aS'ffffffffffffffffffffffffffffffffffffffffffffffffffffffffffffffffffff'
p65
aS'ffffffffffffffffffffffffffffffffffffffffffffffffffffffffffffffffffff'
p66
aS'ffffffffffffffffffffffffffffffffffffffffffffffffffffffffffffffffffff'
p67
aS'ffffffffffffffffffffffffffffffffffffffffffffffffffffffffffffffffffff'
p68
aS'ffffffffffffffffffffffffffffffffffffffffffffffffffffffffffffffffffff'
p69
aS'ffffffffffffffffffffffffffffffffffffffffffffffffffffffffffffffffffff'
p70
aS'ffffffffffffffffffffffffffffffffffffffffffffffffffffffffffffffffffff'
p71
aS'ffffffffffffffffffffffffffffffffffffffffffffffffffffffffffffffffffff'
p72
aS'ffffffffffffffffffffffffffffffffffffffffffffffffffffffffffffffffffff'
p73
aS'ffffffffffffffffffffffffffffffffffffffffffffffffffffffffffffffffffff'
p74
aS'ffffffffffffffffffffffffffffffffffffffffffffffffffffffffffffffffffff'
p75
aS'ffffffffffffffffffffffffffffffffffffffffffffffffffffffffffffffffffff'
p76
aS'ffffffffffffffffffffffffffffffffffffffffffffffffffffffffffffffffffff'
p77
aS'ffffffffffffffffffffffffffffffffffffffffffffffffffffffffffffffffffff'
p78
aS'ffffffffffffffffffffffffffffffffffffffffffffffffffffffffffffffffffff'
p79
aS'ffffffffffffffffffffffffffffffffffffffffffffffffffffffffffffffffffff'
p80
aS'ffffffffffffffffffffffffffffffffffffffffffffffffffffffffffffffffffff'
p81
aS'ffffffffffffffffffffffffffffffffffffffffffffffffffffffffffffffffffff'
p82
aS'ffffffffffffffffffffffffffffffffffffffffffffffffffffffffffffffffffff'
p83
aS'ffffffffffffffffffffffffffffffffffffffffffffffffffffffffffffffffffff'
p84
aS'ffffffffffffffffffffffffffffffffffffffffffffffffffffffffffffffffffff'
p85
aS'ffffffffffffffffffffffffffffffffffffffffffffffffffffffffffffffffffff'
p86
aS'ffffffffffffffffffffffffffffffffffffffffffffffffffffffffffffffffffff'
p87
aS'ffffffffffffffffffffffffffffffffffffffffffffffffffffffffffffffffffff'
p88
aS'ffffffffffffffffffffffffffffffffffffffffffffffffffffffffffffffffffff'
p89
aS'ffffffffffffffffffffffffffffffffffffffffffffffffffffffffffffffffffff'
p90
aS'ffffffffffffffffffffffffffffffffffffffffffffffffffffffffffffffffffff'
p91
aS'ffffffffffffffffffffffffffffffffffffffffffffffffffffffffffffffffffff'
p92
aS'ffffffffffffffffffffffffffffffffffffffffffffffffffffffffffffffffffff'
p93
aS'ffffffffffffffffffffffffffffffffffffffffffffffffffffffffffffffffffff'
p94
aS'ffffffffffffffffffffffffffffffffffffffffffffffffffffffffffffffffffff'
p95
aS'ffffffffffffffffffffffffffffffffffffffffffffffffffffffffffffffffffff'
p96
aS'ffffffffffffffffffffffffffffffffffffffffffffffffffffffffffffffffffff'
p97
aS'ffffffffffffffffffffffffffffffffffffffffffffffffffffffffffffffffffff'
p98
aS'ffffffffffffffffffffffffffffffffffffffffffffffffffffffffffffffffffff'
p99
aS'ffffffffffffffffffffffffffffffffffffffffffffffffffffffffffffffffffff'
p100
aS'ffffffffffffffffffffffffffffffffffffffffffffffffffffffffffffffffffff'
p101
aS'ffffffffffffffffffffffffffffffffffffffffffffffffffffffffffffffffffff'
p102
aS'ffffffffffffffffffffffffffffffffffffffffffffffffffffffffffffffffffff'
p103
aS'ffffffffffffffffffffffffffffffffffffffffffffffffffffffffffffffffffff'
p104
aS'ffffffffffffffffffffffffffffffffffffffffffffffffffffffffffffffffffff'
p105
aS'ffffffffffffffffffffffffffffffffffffffffffffffffffffffffffffffffffff'
p106
aS'ffffffffffffffffffffffffffffffffffffffffffffffffffffffffffffffffffff'
p107
aS'ffffffffffffffffffffffffffffffffffffffffffffffffffffffffffffffffffff'
p108
aS'ffffffffffffffffffffffffffffffffffffffffffffffffffffffffffffffffffff'
p109
aS'ffffffffffffffffffffffffffffffffffffffffffffffffffffffffffffffffffff'
p110
aS'ffffffffffffffffffffffffffffffffffffffffffffffffffffffffffffffffffff'
p111
aS'ffffffffffffffffffffffffffffffffffffffffffffffffffffffffffffffffffff'
p112
aS'ffffffffffffffffffffffffffffffffffffffffffffffffffffffffffffffffffff'
p113
aS'ffffffffffffffffffffffffffffffffffffffffffffffffffffffffffffffffffff'
p114
aS'ffffffffffffffffffffffffffffffffffffffffffffffffffffffffffffffffffff'
p115
aS'ffffffffffffffffffffffffffffffffffffffffffffffffffffffffffffffffffff'
p116
aS'ffffffffffffffffffffffffffffffffffffffffffffffffffffffffffffffffffff'
p117
aS'ffffffffffffffffffffffffffffffffffffffffffffffffffffffffffffffffffff'
p118
aS'ffffffffffffffffffffffffffffffffffffffffffffffffffffffffffffffffffff'
p119
aS'ffffffffffffffffffffffffffffffffffffffffffffffffffffffffffffffffffff'
p120
aS'ffffffffffffffffffffffffffffffffffffffffffffffffffffffffffffffffffff'
p121
aS'ffffffffffffffffffffffffffffffffffffffffffffffffffffffffffffffffffff'
p122
aS'ffffffffffffffffffffffffffffffffffffffffffffffffffffffffffffffffffff'
p123
aS'ffffffffffffffffffffffffffffffffffffffffffffffffffffffffffffffffffff'
p124
aS'ffffffffffffffffffffffffffffffffffffffffffffffffffffffffffffffffffff'
p125
aS'ffffffffffffffffffffffffffffffffffffffffffffffffffffffffffffffffffff'
p126
aS'ffffffffffffffffffffffffffffffffffffffffffffffffffffffffffffffffffff'
p127
aS'ffffffffffffffffffffffffffffffffffffffffffffffffffffffffffffffffffff'
p128
aS'ffffffffffffffffffffffffffffffffffffffffffffffffffffffffffffffffffff'
p129
aS'ffffffffffffffffffffffffffffffffffffffffffffffffffffffffffffffffffff'
p130
aS'ffffffffffffffffffffffffffffffffffffffffffffffffffffffffffffffffffff'
p131
aS'ffffffffffffffffffffffffffffffffffffffffffffffffffffffffffffffffffff'
p132
aS'ffffffffffffffffffffffffffffffffffffffffffffffffffffffffffffffffffff'
p133
aS'ffffffffffffffffffffffffffffffffffffffffffffffffffffffffffffffffffff'
p134
aS'ffffffffffffffffffffffffffffffffffffffffffffffffffffffffffffffffffff'
p135
aS'ffffffffffffffffffffffffffffffffffffffffffffffffffffffffffffffffffff'
p136
aS'ffffffffffffffffffffffffffffffffffffffffffffffffffffffffffffffffffff'
p137
aS'ffffffffffffffffffffffffffffffffffffffffffffffffffffffffffffffffffff'
p138
aS'ffffffffffffffffffffffffffffffffffffffffffffffffffffffffffffffffffff'
p139
aS'ffffffffffffffffffffffffffffffffffffffffffffffffffffffffffffffffffff'
p140
aS'ffffffffffffffffffffffffffffffffffffffffffffffffffffffffffffffffffff'
p141
aS'ffffffffffffffffffffffffffffffffffffffffffffffffffffffffffffffffffff'
p142
aS'ffffffffffffffffffffffffffffffffffffffffffffffffffffffffffffffffffff'
p143
aS'ffffffffffffffffffffffffffffffffffffffffffffffffffffffffffffffffffff'
p144
aS'ffffffffffffffffffffffffffffffffffffffffffffffffffffffffffffffffffff'
p145
aS'ffffffffffffffffffffffffffffffffffffffffffffffffffffffffffffffffffff'
p146
aS'ffffffffffffffffffffffffffffffffffffffffffffffffffffffffffffffffffff'
p147
aS'ffffffffffffffffffffffffffffffffffffffffffffffffffffffffffffffffffff'
p148
aS'ffffffffffffffffffffffffffffffffffffffffffffffffffffffffffffffffffff'
p149
aS'ffffffffffffffffffffffffffffffffffffffffffffffffffffffffffffffffffff'
p150
aS'ffffffffffffffffffffffffffffffffffffffffffffffffffffffffffffffffffff'
p151
aS'ffffffffffffffffffffffffffffffffffffffffffffffffffffffffffffffffffff'
p152
aS'ffffffffffffffffffffffffffffffffffffffffffffffffffffffffffffffffffff'
p153
aS'ffffffffffffffffffffffffffffffffffffffffffffffffffffffffffffffffffff'
p154
aS'ffffffffffffffffffffffffffffffffffffffffffffffffffffffffffffffffffff'
p155
aS'ffffffffffffffffffffffffffffffffffffffffffffffffffffffffffffffffffff'
p156
aS'ffffffffffffffffffffffffffffffffffffffffffffffffffffffffffffffffffff'
p157
aS'ffffffffffffffffffffffffffffffffffffffffffffffffffffffffffffffffffff'
p158
aS'ffffffffffffffffffffffffffffffffffffffffffffffffffffffffffffffffffff'
p159
aS'ffffffffffffffffffffffffffffffffffffffffffffffffffffffffffffffffffff'
p160
aS'ffffffffffffffffffffffffffffffffffffffffffffffffffffffffffffffffffff'
p161
aS'ffffffffffffffffffffffffffffffffffffffffffffffffffffffffffffffffffff'
p162
aS'ffffffffffffffffffffffffffffffffffffffffffffffffffffffffffffffffffff'
p163
aS'ffffffffffffffffffffffffffffffffffffffffffffffffffffffffffffffffffff'
p164
aS'ffffffffffffffffffffffffffffffffffffffffffffffffffffffffffffffffffff'
p165
aS'ffffffffffffffffffffffffffffffffffffffffffffffffffffffffffffffffffff'
p166
aS'ffffffffffffffffffffffffffffffffffffffffffffffffffffffffffffffffffff'
p167
aS'ffffffffffffffffffffffffffffffffffffffffffffffffffffffffffffffffffff'
p168
aS'ffffffffffffffffffffffffffffffffffffffffffffffffffffffffffffffffffff'
p169
aS'ffffffffffffffffffffffffffffffffffffffffffffffffffffffffffffffffffff'
p170
aS'ffffffffffffffffffffffffffffffffffffffffffffffffffffffffffffffffffff'
p171
aS'ffffffffffffffffffffffffffffffffffffffffffffffffffffffffffffffffffff'
p172
aS'ffffffffffffffffffffffffffffffffffffffffffffffffffffffffffffffffffff'
p173
aS'ffffffffffffffffffffffffffffffffffffffffffffffffffffffffffffffffffff'
p174
aS'ffffffffffffffffffffffffffffffffffffffffffffffffffffffffffffffffffff'
p175
aS'ffffffffffffffffffffffffffffffffffffffffffffffffffffffffffffffffffff'
p176
aS'ffffffffffffffffffffffffffffffffffffffffffffffffffffffffffffffffffff'
p177
aS'ffffffffffffffffffffffffffffffffffffffffffffffffffffffffffffffffffff'
p178
aS'ffffffffffffffffffffffffffffffffffffffffffffffffffffffffffffffffffff'
p179
aS'ffffffffffffffffffffffffffffffffffffffffffffffffffffffffffffffffffff'
p180
aS'ffffffffffffffffffffffffffffffffffffffffffffffffffffffffffffffffffff'
p181
aS'ffffffffffffffffffffffffffffffffffffffffffffffffffffffffffffffffffff'
p182
aS'ffffffffffffffffffffffffffffffffffffffffffffffffffffffffffffffffffff'
p183
aS'ffffffffffffffffffffffffffffffffffffffffffffffffffffffffffffffffffff'
p184
aS'ffffffffffffffffffffffffffffffffffffffffffffffffffffffffffffffffffff'
p185
aS'ffffffffffffffffffffffffffffffffffffffffffffffffffffffffffffffffffff'
p186
aS'ffffffffffffffffffffffffffffffffffffffffffffffffffffffffffffffffffff'
p187
aS'ffffffffffffffffffffffffffffffffffffffffffffffffffffffffffffffffffff'
p188
aS'ffffffffffffffffffffffffffffffffffffffffffffffffffffffffffffffffffff'
p189
aS'ffffffffffffffffffffffffffffffffffffffffffffffffffffffffffffffffffff'
p190
aS'ffffffffffffffffffffffffffffffffffffffffffffffffffffffffffffffffffff'
p191
aS'ffffffffffffffffffffffffffffffffffffffffffffffffffffffffffffffffffff'
p192
aS'ffffffffffffffffffffffffffffffffffffffffffffffffffffffffffffffffffff'
p193
aS'ffffffffffffffffffffffffffffffffffffffffffffffffffffffffffffffffffff'
p194
aS'ffffffffffffffffffffffffffffffffffffffffffffffffffffffffffffffffffff'
p195
aS'ffffffffffffffffffffffffffffffffffffffffffffffffffffffffffffffffffff'
p196
aS'ffffffffffffffffffffffffffffffffffffffffffffffffffffffffffffffffffff'
p197
aS'ffffffffffffffffffffffffffffffffffffffffffffffffffffffffffffffffffff'
p198
aS'ffffffffffffffffffffffffffffffffffffffffffffffffffffffffffffffffffff'
p199
aS'ffffffffffffffffffffffffffffffffffffffffffffffffffffffffffffffffffff'
p200
aS'ffffffffffffffffffffffffffffffffffffffffffffffffffffffffffffffffffff'
p201
aS'ffffffffffffffffffffffffffffffffffffffffffffffffffffffffffffffffffff'
p202
aS'ffffffffffffffffffffffffffffffffffffffffffffffffffffffffffffffffffff'
p203
aS'ffffffffffffffffffffffffffffffffffffffffffffffffffffffffffffffffffff'
p204
aS'ffffffffffffffffffffffffffffffffffffffffffffffffffffffffffffffffffff'
p205
aS'ffffffffffffffffffffffffffffffffffffffffffffffffffffffffffffffffffff'
p206
aS'ffffffffffffffffffffffffffffffffffffffffffffffffffffffffffffffffffff'
p207
aS'ffffffffffffffffffffffffffffffffffffffffffffffffffffffffffffffffffff'
p208
aS'ffffffffffffffffffffffffffffffffffffffffffffffffffffffffffffffffffff'
p209
aS'ffffffffffffffffffffffffffffffffffffffffffffffffffffffffffffffffffff'
p210
aS'ffffffffffffffffffffffffffffffffffffffffffffffffffffffffffffffffffff'
p211
aS'ffffffffffffffffffffffffffffffffffffffffffffffffffffffffffffffffffff'
p212
aS'ffffffffffffffffffffffffffffffffffffffffffffffffffffffffffffffffffff'
p213
aS'ffffffffffffffffffffffffffffffffffffffffffffffffffffffffffffffffffff'
p214
aS'ffffffffffffffffffffffffffffffffffffffffffffffffffffffffffffffffffff'
p215
aS'ffffffffffffffffffffffffffffffffffffffffffffffffffffffffffffffffffff'
p216
aS'ffffffffffffffffffffffffffffffffffffffffffffffffffffffffffffffffffff'
p217
aS'ffffffffffffffffffffffffffffffffffffffffffffffffffffffffffffffffffff'
p218
aS'ffffffffffffffffffffffffffffffffffffffffffffffffffffffffffffffffffff'
p219
aS'ffffffffffffffffffffffffffffffffffffffffffffffffffffffffffffffffffff'
p220
aS'ffffffffffffffffffffffffffffffffffffffffffffffffffffffffffffffffffff'
p221
aS'ffffffffffffffffffffffffffffffffffffffffffffffffffffffffffffffffffff'
p222
aS'ffffffffffffffffffffffffffffffffffffffffffffffffffffffffffffffffffff'
p223
aS'ffffffffffffffffffffffffffffffffffffffffffffffffffffffffffffffffffff'
p224
aS'ffffffffffffffffffffffffffffffffffffffffffffffffffffffffffffffffffff'
p225
aS'ffffffffffffffffffffffffffffffffffffffffffffffffffffffffffffffffffff'
p226
aS'ffffffffffffffffffffffffffffffffffffffffffffffffffffffffffffffffffff'
p227
aS'ffffffffffffffffffffffffffffffffffffffffffffffffffffffffffffffffffff'
p228
aS'ffffffffffffffffffffffffffffffffffffffffffffffffffffffffffffffffffff'
p229
aS'ffffffffffffffffffffffffffffffffffffffffffffffffffffffffffffffffffff'
p230
aS'ffffffffffffffffffffffffffffffffffffffffffffffffffffffffffffffffffff'
p231
aS'ffffffffffffffffffffffffffffffffffffffffffffffffffffffffffffffffffff'
p232
aS'ffffffffffffffffffffffffffffffffffffffffffffffffffffffffffffffffffff'
p233
aS'ffffffffffffffffffffffffffffffffffffffffffffffffffffffffffffffffffff'
p234
aS'ffffffffffffffffffffffffffffffffffffffffffffffffffffffffffffffffffff'
p235
aS'ffffffffffffffffffffffffffffffffffffffffffffffffffffffffffffffffffff'
p236
aS'ffffffffffffffffffffffffffffffffffffffffffffffffffffffffffffffffffff'
p237
aS'ffffffffffffffffffffffffffffffffffffffffffffffffffffffffffffffffffff'
p238
aS'ffffffffffffffffffffffffffffffffffffffffffffffffffffffffffffffffffff'
p239
aS'ffffffffffffffffffffffffffffffffffffffffffffffffffffffffffffffffffff'
p240
aS'ffffffffffffffffffffffffffffffffffffffffffffffffffffffffffffffffffff'
p241
aS'ffffffffffffffffffffffffffffffffffffffffffffffffffffffffffffffffffff'
p242
aS'ffffffffffffffffffffffffffffffffffffffffffffffffffffffffffffffffffff'
p243
aS'ffffffffffffffffffffffffffffffffffffffffffffffffffffffffffffffffffff'
p244
aS'ffffffffffffffffffffffffffffffffffffffffffffffffffffffffffffffffffff'
p245
aS'ffffffffffffffffffffffffffffffffffffffffffffffffffffffffffffffffffff'
p246
aS'ffffffffffffffffffffffffffffffffffffffffffffffffffffffffffffffffffff'
p247
aS'ffffffffffffffffffffffffffffffffffffffffffffffffffffffffffffffffffff'
p248
aS'ffffffffffffffffffffffffffffffffffffffffffffffffffffffffffffffffffff'
p249
aS'ffffffffffffffffffffffffffffffffffffffffffffffffffffffffffffffffffff'
p250
aS'ffffffffffffffffffffffffffffffffffffffffffffffffffffffffffffffffffff'
p251
aS'ffffffffffffffffffffffffffffffffffffffffffffffffffffffffffffffffffff'
p252
aS'ffffffffffffffffffffffffffffffffffffffffffffffffffffffffffffffffffff'
p253
aS'ffffffffffffffffffffffffffffffffffffffffffffffffffffffffffffffffffff'
p254
aS'ffffffffffffffffffffffffffffffffffffffffffffffffffffffffffffffffffff'
p255
aS'ffffffffffffffffffffffffffffffffffffffffffffffffffffffffffffffffffff'
p256
aS'ffffffffffffffffffffffffffffffffffffffffffffffffffffffffffffffffffff'
p257
aS'ffffffffffffffffffffffffffffffffffffffffffffffffffffffffffffffffffff'
p258
aS'ffffffffffffffffffffffffffffffffffffffffffffffffffffffffffffffffffff'
p259
aS'ffffffffffffffffffffffffffffffffffffffffffffffffffffffffffffffffffff'
p260
aS'ffffffffffffffffffffffffffffffffffffffffffffffffffffffffffffffffffff'
p261
aS'ffffffffffffffffffffffffffffffffffffffffffffffffffffffffffffffffffff'
p262
aS'ffffffffffffffffffffffffffffffffffffffffffffffffffffffffffffffffffff'
p263
aS'ffffffffffffffffffffffffffffffffffffffffffffffffffffffffffffffffffff'
p264
aS'ffffffffffffffffffffffffffffffffffffffffffffffffffffffffffffffffffff'
p265
aS'ffffffffffffffffffffffffffffffffffffffffffffffffffffffffffffffffffff'
p266
aS'ffffffffffffffffffffffffffffffffffffffffffffffffffffffffffffffffffff'
p267
aS'ffffffffffffffffffffffffffffffffffffffffffffffffffffffffffffffffffff'
p268
aS'ffffffffffffffffffffffffffffffffffffffffffffffffffffffffffffffffffff'
p269
aS'ffffffffffffffffffffffffffffffffffffffffffffffffffffffffffffffffffff'
p270
aS'ffffffffffffffffffffffffffffffffffffffffffffffffffffffffffffffffffff'
p271
aS'ffffffffffffffffffffffffffffffffffffffffffffffffffffffffffffffffffff'
p272
aS'ffffffffffffffffffffffffffffffffffffffffffffffffffffffffffffffffffff'
p273
aS'ffffffffffffffffffffffffffffffffffffffffffffffffffffffffffffffffffff'
p274
aS'ffffffffffffffffffffffffffffffffffffffffffffffffffffffffffffffffffff'
p275
aS'ffffffffffffffffffffffffffffffffffffffffffffffffffffffffffffffffffff'
p276
aS'ffffffffffffffffffffffffffffffffffffffffffffffffffffffffffffffffffff'
p277
aS'ffffffffffffffffffffffffffffffffffffffffffffffffffffffffffffffffffff'
p278
aS'ffffffffffffffffffffffffffffffffffffffffffffffffffffffffffffffffffff'
p279
aS'ffffffffffffffffffffffffffffffffffffffffffffffffffffffffffffffffffff'
p280
aS'ffffffffffffffffffffffffffffffffffffffffffffffffffffffffffffffffffff'
p281
aS'ffffffffffffffffffffffffffffffffffffffffffffffffffffffffffffffffffff'
p282
asg25
S'6F3A'
p283
sg27
g28
sba(i__main__
EF
p284
(dp285
g4
Nsg5
S'622582054221001c1483026f3ba50ac00100cd02ff01ca01848a01058b036f0604800202308800'
p286
sg7
(lp287
S'ffffffffffffffffffffffffffffffffffffffffffffffffffffffff'
p288
aS'ffffffffffffffffffffffffffffffffffffffffffffffffffffffff'
p289
aS'ffffffffffffffffffffffffffffffffffffffffffffffffffffffff'
p290
aS'ffffffffffffffffffffffffffffffffffffffffffffffffffffffff'
p291
aS'ffffffffffffffffffffffffffffffffffffffffffffffffffffffff'
p292
aS'ffffffffffffffffffffffffffffffffffffffffffffffffffffffff'
p293
aS'ffffffffffffffffffffffffffffffffffffffffffffffffffffffff'
p294
aS'ffffffffffffffffffffffffffffffffffffffffffffffffffffffff'
p295
aS'ffffffffffffffffffffffffffffffffffffffffffffffffffffffff'
p296
aS'ffffffffffffffffffffffffffffffffffffffffffffffffffffffff'
p297
aS'ffffffffffffffffffffffffffffffffffffffffffffffffffffffff'
p298
aS'ffffffffffffffffffffffffffffffffffffffffffffffffffffffff'
p299
aS'ffffffffffffffffffffffffffffffffffffffffffffffffffffffff'
p300
aS'ffffffffffffffffffffffffffffffffffffffffffffffffffffffff'
p301
aS'ffffffffffffffffffffffffffffffffffffffffffffffffffffffff'
p302
aS'ffffffffffffffffffffffffffffffffffffffffffffffffffffffff'
p303
aS'ffffffffffffffffffffffffffffffffffffffffffffffffffffffff'
p304
aS'ffffffffffffffffffffffffffffffffffffffffffffffffffffffff'
p305
aS'ffffffffffffffffffffffffffffffffffffffffffffffffffffffff'
p306
aS'ffffffffffffffffffffffffffffffffffffffffffffffffffffffff'
p307
asg25
S'6F3B'
p308
sg27
g28
sba(i__main__
EF
p309
(dp310
g4
Nsg5
S'62258205422100b01e83026f3ca50ac00100cd02ff01ca01848a01058b036f0605800214a08800'
p311
sg7
(lp312
S'00ffffffffffffffffffffffffffffffffffffffffffffffffffffffffffffffffffffffffffffffffffffffffffffffffffffffffffffffffffffffffffffffffffffffffffffffffffffffffffffffffffffffffffffffffffffffffffffffffffffffffffffffffffffffffffffffffffffffffffffffffffffffffffffffffffffffffffffffffffffffffffffffffffffffffffffffffffffffffffffffffffffffffffffffffffffffffffffff'
p313
aS'00ffffffffffffffffffffffffffffffffffffffffffffffffffffffffffffffffffffffffffffffffffffffffffffffffffffffffffffffffffffffffffffffffffffffffffffffffffffffffffffffffffffffffffffffffffffffffffffffffffffffffffffffffffffffffffffffffffffffffffffffffffffffffffffffffffffffffffffffffffffffffffffffffffffffffffffffffffffffffffffffffffffffffffffffffffffffffffffff'
p314
aS'00ffffffffffffffffffffffffffffffffffffffffffffffffffffffffffffffffffffffffffffffffffffffffffffffffffffffffffffffffffffffffffffffffffffffffffffffffffffffffffffffffffffffffffffffffffffffffffffffffffffffffffffffffffffffffffffffffffffffffffffffffffffffffffffffffffffffffffffffffffffffffffffffffffffffffffffffffffffffffffffffffffffffffffffffffffffffffffffff'
p315
aS'00ffffffffffffffffffffffffffffffffffffffffffffffffffffffffffffffffffffffffffffffffffffffffffffffffffffffffffffffffffffffffffffffffffffffffffffffffffffffffffffffffffffffffffffffffffffffffffffffffffffffffffffffffffffffffffffffffffffffffffffffffffffffffffffffffffffffffffffffffffffffffffffffffffffffffffffffffffffffffffffffffffffffffffffffffffffffffffffff'
p316
aS'00ffffffffffffffffffffffffffffffffffffffffffffffffffffffffffffffffffffffffffffffffffffffffffffffffffffffffffffffffffffffffffffffffffffffffffffffffffffffffffffffffffffffffffffffffffffffffffffffffffffffffffffffffffffffffffffffffffffffffffffffffffffffffffffffffffffffffffffffffffffffffffffffffffffffffffffffffffffffffffffffffffffffffffffffffffffffffffffff'
p317
aS'00ffffffffffffffffffffffffffffffffffffffffffffffffffffffffffffffffffffffffffffffffffffffffffffffffffffffffffffffffffffffffffffffffffffffffffffffffffffffffffffffffffffffffffffffffffffffffffffffffffffffffffffffffffffffffffffffffffffffffffffffffffffffffffffffffffffffffffffffffffffffffffffffffffffffffffffffffffffffffffffffffffffffffffffffffffffffffffffff'
p318
aS'00ffffffffffffffffffffffffffffffffffffffffffffffffffffffffffffffffffffffffffffffffffffffffffffffffffffffffffffffffffffffffffffffffffffffffffffffffffffffffffffffffffffffffffffffffffffffffffffffffffffffffffffffffffffffffffffffffffffffffffffffffffffffffffffffffffffffffffffffffffffffffffffffffffffffffffffffffffffffffffffffffffffffffffffffffffffffffffffff'
p319
aS'00ffffffffffffffffffffffffffffffffffffffffffffffffffffffffffffffffffffffffffffffffffffffffffffffffffffffffffffffffffffffffffffffffffffffffffffffffffffffffffffffffffffffffffffffffffffffffffffffffffffffffffffffffffffffffffffffffffffffffffffffffffffffffffffffffffffffffffffffffffffffffffffffffffffffffffffffffffffffffffffffffffffffffffffffffffffffffffffff'
p320
aS'00ffffffffffffffffffffffffffffffffffffffffffffffffffffffffffffffffffffffffffffffffffffffffffffffffffffffffffffffffffffffffffffffffffffffffffffffffffffffffffffffffffffffffffffffffffffffffffffffffffffffffffffffffffffffffffffffffffffffffffffffffffffffffffffffffffffffffffffffffffffffffffffffffffffffffffffffffffffffffffffffffffffffffffffffffffffffffffffff'
p321
aS'00ffffffffffffffffffffffffffffffffffffffffffffffffffffffffffffffffffffffffffffffffffffffffffffffffffffffffffffffffffffffffffffffffffffffffffffffffffffffffffffffffffffffffffffffffffffffffffffffffffffffffffffffffffffffffffffffffffffffffffffffffffffffffffffffffffffffffffffffffffffffffffffffffffffffffffffffffffffffffffffffffffffffffffffffffffffffffffffff'
p322
aS'00ffffffffffffffffffffffffffffffffffffffffffffffffffffffffffffffffffffffffffffffffffffffffffffffffffffffffffffffffffffffffffffffffffffffffffffffffffffffffffffffffffffffffffffffffffffffffffffffffffffffffffffffffffffffffffffffffffffffffffffffffffffffffffffffffffffffffffffffffffffffffffffffffffffffffffffffffffffffffffffffffffffffffffffffffffffffffffffff'
p323
aS'00ffffffffffffffffffffffffffffffffffffffffffffffffffffffffffffffffffffffffffffffffffffffffffffffffffffffffffffffffffffffffffffffffffffffffffffffffffffffffffffffffffffffffffffffffffffffffffffffffffffffffffffffffffffffffffffffffffffffffffffffffffffffffffffffffffffffffffffffffffffffffffffffffffffffffffffffffffffffffffffffffffffffffffffffffffffffffffffff'
p324
aS'00ffffffffffffffffffffffffffffffffffffffffffffffffffffffffffffffffffffffffffffffffffffffffffffffffffffffffffffffffffffffffffffffffffffffffffffffffffffffffffffffffffffffffffffffffffffffffffffffffffffffffffffffffffffffffffffffffffffffffffffffffffffffffffffffffffffffffffffffffffffffffffffffffffffffffffffffffffffffffffffffffffffffffffffffffffffffffffffff'
p325
aS'00ffffffffffffffffffffffffffffffffffffffffffffffffffffffffffffffffffffffffffffffffffffffffffffffffffffffffffffffffffffffffffffffffffffffffffffffffffffffffffffffffffffffffffffffffffffffffffffffffffffffffffffffffffffffffffffffffffffffffffffffffffffffffffffffffffffffffffffffffffffffffffffffffffffffffffffffffffffffffffffffffffffffffffffffffffffffffffffff'
p326
aS'00ffffffffffffffffffffffffffffffffffffffffffffffffffffffffffffffffffffffffffffffffffffffffffffffffffffffffffffffffffffffffffffffffffffffffffffffffffffffffffffffffffffffffffffffffffffffffffffffffffffffffffffffffffffffffffffffffffffffffffffffffffffffffffffffffffffffffffffffffffffffffffffffffffffffffffffffffffffffffffffffffffffffffffffffffffffffffffffff'
p327
aS'00ffffffffffffffffffffffffffffffffffffffffffffffffffffffffffffffffffffffffffffffffffffffffffffffffffffffffffffffffffffffffffffffffffffffffffffffffffffffffffffffffffffffffffffffffffffffffffffffffffffffffffffffffffffffffffffffffffffffffffffffffffffffffffffffffffffffffffffffffffffffffffffffffffffffffffffffffffffffffffffffffffffffffffffffffffffffffffffff'
p328
aS'00ffffffffffffffffffffffffffffffffffffffffffffffffffffffffffffffffffffffffffffffffffffffffffffffffffffffffffffffffffffffffffffffffffffffffffffffffffffffffffffffffffffffffffffffffffffffffffffffffffffffffffffffffffffffffffffffffffffffffffffffffffffffffffffffffffffffffffffffffffffffffffffffffffffffffffffffffffffffffffffffffffffffffffffffffffffffffffffff'
p329
aS'00ffffffffffffffffffffffffffffffffffffffffffffffffffffffffffffffffffffffffffffffffffffffffffffffffffffffffffffffffffffffffffffffffffffffffffffffffffffffffffffffffffffffffffffffffffffffffffffffffffffffffffffffffffffffffffffffffffffffffffffffffffffffffffffffffffffffffffffffffffffffffffffffffffffffffffffffffffffffffffffffffffffffffffffffffffffffffffffff'
p330
aS'00ffffffffffffffffffffffffffffffffffffffffffffffffffffffffffffffffffffffffffffffffffffffffffffffffffffffffffffffffffffffffffffffffffffffffffffffffffffffffffffffffffffffffffffffffffffffffffffffffffffffffffffffffffffffffffffffffffffffffffffffffffffffffffffffffffffffffffffffffffffffffffffffffffffffffffffffffffffffffffffffffffffffffffffffffffffffffffffff'
p331
aS'00ffffffffffffffffffffffffffffffffffffffffffffffffffffffffffffffffffffffffffffffffffffffffffffffffffffffffffffffffffffffffffffffffffffffffffffffffffffffffffffffffffffffffffffffffffffffffffffffffffffffffffffffffffffffffffffffffffffffffffffffffffffffffffffffffffffffffffffffffffffffffffffffffffffffffffffffffffffffffffffffffffffffffffffffffffffffffffffff'
p332
aS'00ffffffffffffffffffffffffffffffffffffffffffffffffffffffffffffffffffffffffffffffffffffffffffffffffffffffffffffffffffffffffffffffffffffffffffffffffffffffffffffffffffffffffffffffffffffffffffffffffffffffffffffffffffffffffffffffffffffffffffffffffffffffffffffffffffffffffffffffffffffffffffffffffffffffffffffffffffffffffffffffffffffffffffffffffffffffffffffff'
p333
aS'00ffffffffffffffffffffffffffffffffffffffffffffffffffffffffffffffffffffffffffffffffffffffffffffffffffffffffffffffffffffffffffffffffffffffffffffffffffffffffffffffffffffffffffffffffffffffffffffffffffffffffffffffffffffffffffffffffffffffffffffffffffffffffffffffffffffffffffffffffffffffffffffffffffffffffffffffffffffffffffffffffffffffffffffffffffffffffffffff'
p334
aS'00ffffffffffffffffffffffffffffffffffffffffffffffffffffffffffffffffffffffffffffffffffffffffffffffffffffffffffffffffffffffffffffffffffffffffffffffffffffffffffffffffffffffffffffffffffffffffffffffffffffffffffffffffffffffffffffffffffffffffffffffffffffffffffffffffffffffffffffffffffffffffffffffffffffffffffffffffffffffffffffffffffffffffffffffffffffffffffffff'
p335
aS'00ffffffffffffffffffffffffffffffffffffffffffffffffffffffffffffffffffffffffffffffffffffffffffffffffffffffffffffffffffffffffffffffffffffffffffffffffffffffffffffffffffffffffffffffffffffffffffffffffffffffffffffffffffffffffffffffffffffffffffffffffffffffffffffffffffffffffffffffffffffffffffffffffffffffffffffffffffffffffffffffffffffffffffffffffffffffffffffff'
p336
aS'00ffffffffffffffffffffffffffffffffffffffffffffffffffffffffffffffffffffffffffffffffffffffffffffffffffffffffffffffffffffffffffffffffffffffffffffffffffffffffffffffffffffffffffffffffffffffffffffffffffffffffffffffffffffffffffffffffffffffffffffffffffffffffffffffffffffffffffffffffffffffffffffffffffffffffffffffffffffffffffffffffffffffffffffffffffffffffffffff'
p337
aS'00ffffffffffffffffffffffffffffffffffffffffffffffffffffffffffffffffffffffffffffffffffffffffffffffffffffffffffffffffffffffffffffffffffffffffffffffffffffffffffffffffffffffffffffffffffffffffffffffffffffffffffffffffffffffffffffffffffffffffffffffffffffffffffffffffffffffffffffffffffffffffffffffffffffffffffffffffffffffffffffffffffffffffffffffffffffffffffffff'
p338
aS'00ffffffffffffffffffffffffffffffffffffffffffffffffffffffffffffffffffffffffffffffffffffffffffffffffffffffffffffffffffffffffffffffffffffffffffffffffffffffffffffffffffffffffffffffffffffffffffffffffffffffffffffffffffffffffffffffffffffffffffffffffffffffffffffffffffffffffffffffffffffffffffffffffffffffffffffffffffffffffffffffffffffffffffffffffffffffffffffff'
p339
aS'00ffffffffffffffffffffffffffffffffffffffffffffffffffffffffffffffffffffffffffffffffffffffffffffffffffffffffffffffffffffffffffffffffffffffffffffffffffffffffffffffffffffffffffffffffffffffffffffffffffffffffffffffffffffffffffffffffffffffffffffffffffffffffffffffffffffffffffffffffffffffffffffffffffffffffffffffffffffffffffffffffffffffffffffffffffffffffffffff'
p340
aS'00ffffffffffffffffffffffffffffffffffffffffffffffffffffffffffffffffffffffffffffffffffffffffffffffffffffffffffffffffffffffffffffffffffffffffffffffffffffffffffffffffffffffffffffffffffffffffffffffffffffffffffffffffffffffffffffffffffffffffffffffffffffffffffffffffffffffffffffffffffffffffffffffffffffffffffffffffffffffffffffffffffffffffffffffffffffffffffffff'
p341
aS'00ffffffffffffffffffffffffffffffffffffffffffffffffffffffffffffffffffffffffffffffffffffffffffffffffffffffffffffffffffffffffffffffffffffffffffffffffffffffffffffffffffffffffffffffffffffffffffffffffffffffffffffffffffffffffffffffffffffffffffffffffffffffffffffffffffffffffffffffffffffffffffffffffffffffffffffffffffffffffffffffffffffffffffffffffffffffffffffff'
p342
asg25
S'6F3C'
p343
sg27
g28
sba(i__main__
EF
p344
(dp345
g4
Nsg5
S'62258205422100220683026f40a50ac00100cd02ff01ca01848a01058b036f0605800200cc8800'
p346
sg7
(lp347
S'ffffffffffffffffffffffffffffffffffff07918812014230f9ffffffffffffffff'
p348
aS'ffffffffffffffffffffffffffffffffffffffffffffffffffffffffffffffffffff'
p349
aS'ffffffffffffffffffffffffffffffffffffffffffffffffffffffffffffffffffff'
p350
aS'ffffffffffffffffffffffffffffffffffffffffffffffffffffffffffffffffffff'
p351
aS'ffffffffffffffffffffffffffffffffffffffffffffffffffffffffffffffffffff'
p352
aS'ffffffffffffffffffffffffffffffffffffffffffffffffffffffffffffffffffff'
p353
asg25
S'6F40'
p354
sg27
g28
sba(i__main__
EF
p355
(dp356
g4
Nsg5
S'62258205422100340283026f42a50ac00100cd02ff01ca01848a01058b036f0605800200688800'
p357
sg7
(lp358
S'ffffffffffffffffffffffffffffffffffffffffffffffffe1ffffffffffffffffffffffff0581005155f5ffffffffffff000000'
p359
aS'ffffffffffffffffffffffffffffffffffffffffffffffffffffffffffffffffffffffffffffffffffffffffffffffffffffffff'
p360
asg25
S'6F42'
p361
sg27
g28
sba(i__main__
EF
p362
(dp363
g4
Nsg5
S'62228202412183026f43a50ac00100cd02ff01ca01848a01058b036f0605800200028800'
p364
sg7
S'ffff'
p365
sg25
S'6F43'
p366
sg27
S'transparent'
p367
sba(i__main__
EF
p368
(dp369
g4
Nsg5
S'62218205462100221483026f44a506c00100ca01808a01058b036f0609800202a88800'
p370
sg7
(lp371
S'ffffffffffffffffffffffffffffffffffffffffffffffffffffffffffffffffffff'
p372
aS'ffffffffffffffffffffffffffffffffffffffffffffffffffffffffffffffffffff'
p373
aS'ffffffffffffffffffffffffffffffffffffffffffffffffffffffffffffffffffff'
p374
aS'ffffffffffffffffffffffffffffffffffffffffffffffffffffffffffffffffffff'
p375
aS'ffffffffffffffffffffffffffffffffffffffffffffffffffffffffffffffffffff'
p376
aS'ffffffffffffffffffffffffffffffffffffffffffffffffffffffffffffffffffff'
p377
aS'ffffffffffffffffffffffffffffffffffffffffffffffffffffffffffffffffffff'
p378
aS'ffffffffffffffffffffffffffffffffffffffffffffffffffffffffffffffffffff'
p379
aS'ffffffffffffffffffffffffffffffffffffffffffffffffffffffffffffffffffff'
p380
aS'ffffffffffffffffffffffffffffffffffffffffffffffffffffffffffffffffffff'
p381
aS'ffffffffffffffffffffffffffffffffffffffffffffffffffffffffffffffffffff'
p382
aS'ffffffffffffffffffffffffffffffffffffffffffffffffffffffffffffffffffff'
p383
aS'ffffffffffffffffffffffffffffffffffffffffffffffffffffffffffffffffffff'
p384
aS'ffffffffffffffffffffffffffffffffffffffffffffffffffffffffffffffffffff'
p385
aS'ffffffffffffffffffffffffffffffffffffffffffffffffffffffffffffffffffff'
p386
aS'ffffffffffffffffffffffffffffffffffffffffffffffffffffffffffffffffffff'
p387
aS'ffffffffffffffffffffffffffffffffffffffffffffffffffffffffffffffffffff'
p388
aS'ffffffffffffffffffffffffffffffffffffffffffffffffffffffffffffffffffff'
p389
aS'ffffffffffffffffffffffffffffffffffffffffffffffffffffffffffffffffffff'
p390
aS'ffffffffffffffffffffffffffffffffffffffffffffffffffffffffffffffffffff'
p391
asg25
S'6F44'
p392
sg27
S'cyclic'
p393
sba(i__main__
EF
p394
(dp395
g4
Nsg5
S'622182054221001e1483026f47a506c00100ca01808a01058b036f0605800202588800'
p396
sg7
(lp397
S'ffffffffffffffffffffffffffffffffffffffffffffffffffffffffffff'
p398
aS'ffffffffffffffffffffffffffffffffffffffffffffffffffffffffffff'
p399
aS'ffffffffffffffffffffffffffffffffffffffffffffffffffffffffffff'
p400
aS'ffffffffffffffffffffffffffffffffffffffffffffffffffffffffffff'
p401
aS'ffffffffffffffffffffffffffffffffffffffffffffffffffffffffffff'
p402
aS'ffffffffffffffffffffffffffffffffffffffffffffffffffffffffffff'
p403
aS'ffffffffffffffffffffffffffffffffffffffffffffffffffffffffffff'
p404
aS'ffffffffffffffffffffffffffffffffffffffffffffffffffffffffffff'
p405
aS'ffffffffffffffffffffffffffffffffffffffffffffffffffffffffffff'
p406
aS'ffffffffffffffffffffffffffffffffffffffffffffffffffffffffffff'
p407
aS'ffffffffffffffffffffffffffffffffffffffffffffffffffffffffffff'
p408
aS'ffffffffffffffffffffffffffffffffffffffffffffffffffffffffffff'
p409
aS'ffffffffffffffffffffffffffffffffffffffffffffffffffffffffffff'
p410
aS'ffffffffffffffffffffffffffffffffffffffffffffffffffffffffffff'
p411
aS'ffffffffffffffffffffffffffffffffffffffffffffffffffffffffffff'
p412
aS'ffffffffffffffffffffffffffffffffffffffffffffffffffffffffffff'
p413
aS'ffffffffffffffffffffffffffffffffffffffffffffffffffffffffffff'
p414
aS'ffffffffffffffffffffffffffffffffffffffffffffffffffffffffffff'
p415
aS'ffffffffffffffffffffffffffffffffffffffffffffffffffffffffffff'
p416
aS'ffffffffffffffffffffffffffffffffffffffffffffffffffffffffffff'
p417
asg25
S'6F47'
p418
sg27
g28
sba(i__main__
EF
p419
(dp420
g4
Nsg5
S'62258205422100221483026f49a50ac00100cd02ff01ca01848a01058b036f0607800202a88800'
p421
sg7
(lp422
S'ffffffffffffffffffffffffffffffffffffffffffffffffffffffffffffffffffff'
p423
aS'ffffffffffffffffffffffffffffffffffffffffffffffffffffffffffffffffffff'
p424
aS'ffffffffffffffffffffffffffffffffffffffffffffffffffffffffffffffffffff'
p425
aS'ffffffffffffffffffffffffffffffffffffffffffffffffffffffffffffffffffff'
p426
aS'ffffffffffffffffffffffffffffffffffffffffffffffffffffffffffffffffffff'
p427
aS'ffffffffffffffffffffffffffffffffffffffffffffffffffffffffffffffffffff'
p428
aS'ffffffffffffffffffffffffffffffffffffffffffffffffffffffffffffffffffff'
p429
aS'ffffffffffffffffffffffffffffffffffffffffffffffffffffffffffffffffffff'
p430
aS'ffffffffffffffffffffffffffffffffffffffffffffffffffffffffffffffffffff'
p431
aS'ffffffffffffffffffffffffffffffffffffffffffffffffffffffffffffffffffff'
p432
aS'ffffffffffffffffffffffffffffffffffffffffffffffffffffffffffffffffffff'
p433
aS'ffffffffffffffffffffffffffffffffffffffffffffffffffffffffffffffffffff'
p434
aS'ffffffffffffffffffffffffffffffffffffffffffffffffffffffffffffffffffff'
p435
aS'ffffffffffffffffffffffffffffffffffffffffffffffffffffffffffffffffffff'
p436
aS'ffffffffffffffffffffffffffffffffffffffffffffffffffffffffffffffffffff'
p437
aS'ffffffffffffffffffffffffffffffffffffffffffffffffffffffffffffffffffff'
p438
aS'ffffffffffffffffffffffffffffffffffffffffffffffffffffffffffffffffffff'
p439
aS'ffffffffffffffffffffffffffffffffffffffffffffffffffffffffffffffffffff'
p440
aS'ffffffffffffffffffffffffffffffffffffffffffffffffffffffffffffffffffff'
p441
aS'ffffffffffffffffffffffffffffffffffffffffffffffffffffffffffffffffffff'
p442
asg25
S'6F49'
p443
sg27
g28
sba(i__main__
EF
p444
(dp445
g4
Nsg5
S'622582054221000d0a83026f4aa50ac00100cd02ff01ca01848a01058b036f0605800200828800'
p446
sg7
(lp447
S'ffffffffffffffffffffffffff'
p448
aS'ffffffffffffffffffffffffff'
p449
aS'ffffffffffffffffffffffffff'
p450
aS'ffffffffffffffffffffffffff'
p451
aS'ffffffffffffffffffffffffff'
p452
aS'ffffffffffffffffffffffffff'
p453
aS'ffffffffffffffffffffffffff'
p454
aS'ffffffffffffffffffffffffff'
p455
aS'ffffffffffffffffffffffffff'
p456
aS'ffffffffffffffffffffffffff'
p457
asg25
S'6F4A'
p458
sg27
g28
sba(i__main__
EF
p459
(dp460
g4
Nsg5
S'622582054221000d1083026f4ba50ac00100cd02ff01ca01848a01058b036f0604800200d08800'
p461
sg7
(lp462
S'00ffffffffffffffffffffffff'
p463
aS'00ffffffffffffffffffffffff'
p464
aS'00ffffffffffffffffffffffff'
p465
aS'00ffffffffffffffffffffffff'
p466
aS'00ffffffffffffffffffffffff'
p467
aS'00ffffffffffffffffffffffff'
p468
aS'00ffffffffffffffffffffffff'
p469
aS'00ffffffffffffffffffffffff'
p470
aS'00ffffffffffffffffffffffff'
p471
aS'00ffffffffffffffffffffffff'
p472
aS'00ffffffffffffffffffffffff'
p473
aS'00ffffffffffffffffffffffff'
p474
aS'00ffffffffffffffffffffffff'
p475
aS'00ffffffffffffffffffffffff'
p476
aS'00ffffffffffffffffffffffff'
p477
aS'00ffffffffffffffffffffffff'
p478
asg25
S'6F4B'
p479
sg27
g28
sba(i__main__
EF
p480
(dp481
g4
Nsg5
S'622582054221000d1083026f4ca50ac00100cd02ff01ca01848a01058b036f0607800200d08800'
p482
sg7
(lp483
S'00ffffffffffffffffffffffff'
p484
aS'00ffffffffffffffffffffffff'
p485
aS'00ffffffffffffffffffffffff'
p486
aS'00ffffffffffffffffffffffff'
p487
aS'00ffffffffffffffffffffffff'
p488
aS'00ffffffffffffffffffffffff'
p489
aS'00ffffffffffffffffffffffff'
p490
aS'00ffffffffffffffffffffffff'
p491
aS'00ffffffffffffffffffffffff'
p492
aS'00ffffffffffffffffffffffff'
p493
aS'00ffffffffffffffffffffffff'
p494
aS'00ffffffffffffffffffffffff'
p495
aS'00ffffffffffffffffffffffff'
p496
aS'00ffffffffffffffffffffffff'
p497
aS'00ffffffffffffffffffffffff'
p498
aS'00ffffffffffffffffffffffff'
p499
asg25
S'6F4C'
p500
sg27
g28
sba(i__main__
EF
p501
(dp502
g4
Nsg5
S'622182054221001d0383026f4da506c00100ca01808a01058b036f0608800200578800'
p503
sg7
(lp504
S'ffffffffffffffffffffffffffffffffffffffffffffffffffffffffff'
p505
aS'ffffffffffffffffffffffffffffffffffffffffffffffffffffffffff'
p506
aS'ffffffffffffffffffffffffffffffffffffffffffffffffffffffffff'
p507
asg25
S'6F4D'
p508
sg27
g28
sba(i__main__
EF
p509
(dp510
g4
Nsg5
S'622282054221000f1483026f4fa506c00100ca01808a01058b036f06058002012c8801b0'
p511
sg7
(lp512
S'ffffffffffffffffffffffffffffff'
p513
aS'ffffffffffffffffffffffffffffff'
p514
aS'ffffffffffffffffffffffffffffff'
p515
aS'ffffffffffffffffffffffffffffff'
p516
aS'ffffffffffffffffffffffffffffff'
p517
aS'ffffffffffffffffffffffffffffff'
p518
aS'ffffffffffffffffffffffffffffff'
p519
aS'ffffffffffffffffffffffffffffff'
p520
aS'ffffffffffffffffffffffffffffff'
p521
aS'ffffffffffffffffffffffffffffff'
p522
aS'ffffffffffffffffffffffffffffff'
p523
aS'ffffffffffffffffffffffffffffff'
p524
aS'ffffffffffffffffffffffffffffff'
p525
aS'ffffffffffffffffffffffffffffff'
p526
aS'ffffffffffffffffffffffffffffff'
p527
aS'ffffffffffffffffffffffffffffff'
p528
aS'ffffffffffffffffffffffffffffff'
p529
aS'ffffffffffffffffffffffffffffff'
p530
aS'ffffffffffffffffffffffffffffff'
p531
aS'ffffffffffffffffffffffffffffff'
p532
asg25
S'6F4F'
p533
sg27
g28
sba.